ccopy_reg
_reconstructor
p0
(csklearn.tree.tree
DecisionTreeClassifier
p1
c__builtin__
object
p2
Ntp3
Rp4
(dp5
S'presort'
p6
I00
sS'splitter'
p7
S'best'
p8
sS'tree_'
p9
NsS'n_features_'
p10
NsS'n_outputs_'
p11
NsS'n_classes_'
p12
NsS'min_impurity_split'
p13
F1e-07
sS'classes_'
p14
NsS'max_features_'
p15
NsS'min_samples_leaf'
p16
I1
sS'min_samples_split'
p17
I2
sS'random_state'
p18
NsS'criterion'
p19
S'gini'
p20
sS'min_weight_fraction_leaf'
p21
F0.0
sS'max_leaf_nodes'
p22
NsS'max_features'
p23
NsS'_sklearn_version'
p24
S'0.18'
p25
sS'max_depth'
p26
I1
sS'class_weight'
p27
Nsb.