ccopy_reg
_reconstructor
p0
(csklearn.neighbors.classification
KNeighborsClassifier
p1
c__builtin__
object
p2
Ntp3
Rp4
(dp5
S'n_neighbors'
p6
I5
sS'n_jobs'
p7
I1
sS'algorithm'
p8
S'auto'
p9
sS'_sklearn_version'
p10
S'0.18'
p11
sS'metric'
p12
S'minkowski'
p13
sS'metric_params'
p14
NsS'p'
p15
I2
sS'radius'
p16
NsS'leaf_size'
p17
I30
sS'_fit_method'
p18
NsS'weights'
p19
S'uniform'
p20
sS'_tree'
p21
NsS'_fit_X'
p22
Nsb.