(dp0
cnumpy.core.multiarray
scalar
p1
(cnumpy
dtype
p2
(S'i8'
p3
I0
I1
tp4
Rp5
(I3
S'<'
p6
NNNI-1
I-1
I0
tp7
bS'\x00\x00\x00\x00\x00\x00\x00\x00'
p8
tp9
Rp10
(dp11
S'to_messages'
p12
F0.188510469122714
sS'staff_name'
p13
S'ALLEN PHILLIP K'
p14
sS'deferral_payments'
p15
F0.4458238154088415
sS'expenses'
p16
F0.06001355991514118
sS'poi'
p17
I00
sS'long_term_incentive'
p18
F0.046409024368766386
sS'email_address'
p19
S'phillip.allen@enron.com'
p20
sS'from_poi_to_this_person'
p21
F0.08901515151515152
sS'deferred_income'
p22
F0.12082905553305456
sS'restricted_stock_deferred'
p23
F0.9636213418972563
sS'shared_receipt_with_poi'
p24
F0.2545751041855408
sS'loan_advances'
p25
F0.3399075500770416
sS'from_messages'
p26
F0.1520618556701031
sS'other'
p27
F1.4479146023828618e-05
sS'director_fees'
p28
F0.7042839164047339
sS'bonus'
p29
F0.5176544766708702
sS'total_stock_value'
p30
F0.034651561654463786
sS'from_this_person_to_poi'
p31
F0.10673234811165845
sS'restricted_stock'
p32
F0.006352468838501718
sS'salary'
p33
F0.18138408921290516
sS'total_payments'
p34
F0.04330155824694069
sS'coefficient_bonus_salary'
p35
F2.8539133664764678
sS'exercised_stock_options'
p36
F0.05008180157473601
sS'coefficient_from_poi_all'
p37
F0.47220269478617466
sS'coefficient_to_poi_all'
p38
F0.7019008655478555
ssg1
(g5
S'\x01\x00\x00\x00\x00\x00\x00\x00'
p39
tp40
Rp41
(dp42
g12
F0.13363771966050086
sg13
S'BADUM JAMES P'
p43
sg15
F0.02664250309509429
sg16
F0.014600966690724582
sg17
I00
sg18
F0.13342002529051686
sg19
S'NaN'
p44
sg21
F0.12290785764622973
sg22
F0.837179431909288
sg23
F0.8393356952427826
sg24
F0.21280397105980606
sg25
F0.3399075500770416
sg26
F0.04157082040083719
sg27
F0.04525916603744523
sg28
F0.7042839164047339
sg29
F0.14272043809256926
sg30
F0.004666117102080468
sg31
F0.0677053499828159
sg32
F0.07823137121233002
sg33
F0.2553253454580079
sg34
F0.0017605120218401676
sg35
F0.5589748163722422
sg36
F0.007222604801287508
sg37
F0.9197093302584798
sg38
F1.6286748572672476
ssg1
(g5
S'\x02\x00\x00\x00\x00\x00\x00\x00'
p45
tp46
Rp47
(dp48
g12
F0.033726477604028623
sg13
S'BANNANTINE JAMES M'
p49
sg15
F0.1338454477789103
sg16
F0.2456225532007961
sg17
I00
sg18
F0.13342002529051686
sg19
S'james.bannantine@enron.com'
p50
sg21
F0.07386363636363637
sg22
F0.9987809517937933
sg23
F0.7948072145348228
sg24
F0.08389200942199673
sg25
F0.3399075500770416
sg26
F0.0011841738645862357
sg27
F0.08345017199777562
sg28
F0.7042839164047339
sg29
F0.14272043809256926
sg30
F0.10624598624974736
sg31
F0.0
sg32
F0.11712027930305134
sg33
F0.0
sg34
F0.008845617421728319
sg35
F0.0
sg36
F0.11754574249879458
sg37
F2.1900785854616895
sg38
F0.0
ssg1
(g5
S'\x03\x00\x00\x00\x00\x00\x00\x00'
p51
tp52
Rp53
(dp54
g12
F0.13363771966050086
sg13
S'BAXTER JOHN C'
p55
sg15
F0.20061866054819194
sg16
F0.04834328456138049
sg17
I00
sg18
F0.2988118500196308
sg19
g44
sg21
F0.12290785764622973
sg22
F0.6046236491926908
sg23
F0.8393356952427826
sg24
F0.21280397105980606
sg25
F0.3399075500770416
sg26
F0.04157082040083719
sg27
F0.25679257764224867
sg28
F0.7042839164047339
sg29
F0.14249684741488022
sg30
F0.21585541371374178
sg31
F0.0677053499828159
sg32
F0.2654757199186326
sg33
F0.24003381404615312
sg34
F0.054405313961823645
sg35
F0.5936532233224494
sg36
F0.19426373500990038
sg37
F0.9197093302584798
sg38
F1.6286748572672476
ssg1
(g5
S'\x04\x00\x00\x00\x00\x00\x00\x00'
p56
tp57
Rp58
(dp59
g12
F0.13363771966050086
sg13
S'BAY FRANKLIN R'
p60
sg15
F0.039335232789881464
sg16
F0.5642411915228659
sg17
I00
sg18
F0.13342002529051686
sg19
S'frank.bay@enron.com'
p61
sg21
F0.12290785764622973
sg22
F0.9426844691660151
sg23
F0.980434909390637
sg24
F0.21280397105980606
sg25
F0.3399075500770416
sg26
F0.04157082040083719
sg27
F6.46735189064345e-06
sg28
F0.7042839164047339
sg29
F0.0416141235813367
sg30
F0.0006971293332203235
sg31
F0.0677053499828159
sg32
F0.0076946296053141666
sg33
F0.21533857709125384
sg34
F0.007991027779208784
sg35
F0.19324973789393024
sg36
F0.0905056909602642
sg37
F0.9197093302584798
sg38
F1.6286748572672476
ssg1
(g5
S'\x05\x00\x00\x00\x00\x00\x00\x00'
p62
tp63
Rp64
(dp65
g12
F0.13363771966050086
sg13
S'BAZELIDES PHILIP J'
p66
sg15
F0.1054260698931256
sg16
F0.23789039433108064
sg17
I00
sg18
F0.0048317534476009765
sg19
g44
sg21
F0.12290785764622973
sg22
F0.837179431909288
sg23
F0.8393356952427826
sg24
F0.21280397105980606
sg25
F0.3399075500770416
sg26
F0.04157082040083719
sg27
F8.41721022185237e-05
sg28
F0.7042839164047339
sg29
F0.14272043809256926
sg30
F0.032004931411731725
sg31
F0.0677053499828159
sg32
F0.07823137121233002
sg33
F0.07232838876430188
sg34
F0.008304277211456258
sg35
F1.9732285003286263
sg36
F0.046298884627760245
sg37
F0.9197093302584798
sg38
F1.6286748572672476
ssg1
(g5
S'\x06\x00\x00\x00\x00\x00\x00\x00'
p67
tp68
Rp69
(dp70
g12
F0.4809170421415319
sg13
S'BECK SALLY W'
p71
sg15
F0.1338454477789103
sg16
F0.16194912844738973
sg17
I00
sg18
F0.13342002529051686
sg19
S'sally.beck@enron.com'
p72
sg21
F0.2727272727272727
sg22
F0.837179431909288
sg23
F0.8393356952427826
sg24
F0.47780394999094034
sg25
F0.3399075500770416
sg26
F0.3016857063248816
sg27
F5.444158904959561e-05
sg28
F0.7042839164047339
sg29
F0.07944514501891552
sg30
F0.0019809793061631646
sg31
F0.6338259441707718
sg32
F0.006352468838501718
sg33
F0.20782944612844478
sg34
F0.00935615412741131
sg35
F0.38226125555767515
sg36
F0.0905056909602642
sg37
F0.5670983742077708
sg38
F2.100947876821888
ssg1
(g5
S'\x07\x00\x00\x00\x00\x00\x00\x00'
p73
tp74
Rp75
(dp76
g12
F0.5257089848926583
sg13
S'BELDEN TIMOTHY N'
p77
sg15
F0.3327687100338696
sg16
F0.07526627736587713
sg17
I01
sg18
F0.13342002529051686
sg19
S'tim.belden@enron.com'
p78
sg21
F0.4318181818181818
sg22
F0.33393301028984
sg23
F0.8393356952427826
sg24
F1.0
sg25
F0.3399075500770416
sg26
F0.032878239063806075
sg27
F0.02033798767091063
sg28
F0.7042839164047339
sg29
F0.6532155107187894
sg30
F0.022043170023275677
sg31
F0.17733990147783252
sg32
F0.008493924395525253
sg33
F0.19222691061514377
sg34
F0.053123801264479034
sg35
F3.3981480981431775
sg36
F0.027471519571528016
sg37
F0.8214015628938747
sg38
F5.393838189863906
ssg1
(g5
S'\x08\x00\x00\x00\x00\x00\x00\x00'
p79
tp80
Rp81
(dp82
g12
F0.13363771966050086
sg13
S'BELFER ROBERT'
p83
sg15
F0.1338454477789103
sg16
F0.013721759289635413
sg17
I00
sg18
F0.13342002529051686
sg19
g44
sg21
F0.12290785764622973
sg22
F0.9709817433902098
sg23
F0.9954771134084751
sg24
F0.21280397105980606
sg25
F0.3399075500770416
sg26
F0.04157082040083719
sg27
F0.04525916603744523
sg28
F0.7904476723640894
sg29
F0.14272043809256926
sg30
F0.07023610810476011
sg31
F0.0677053499828159
sg32
F0.0007897898831670403
sg33
F0.2553253454580079
sg34
F3.0291722224424385e-05
sg35
F0.5589748163722422
sg36
F0.0905056909602642
sg37
F0.9197093302584798
sg38
F1.6286748572672476
ssg1
(g5
S'\t\x00\x00\x00\x00\x00\x00\x00'
p84
tp85
Rp86
(dp87
g12
F0.13363771966050086
sg13
S'BERBERIAN DAVID'
p88
sg15
F0.1338454477789103
sg16
F0.051370207554184984
sg17
I00
sg18
F0.13342002529051686
sg19
S'david.berberian@enron.com'
p89
sg21
F0.12290785764622973
sg22
F0.837179431909288
sg23
F0.8393356952427826
sg24
F0.21280397105980606
sg25
F0.3399075500770416
sg26
F0.04157082040083719
sg27
F0.04525916603744523
sg28
F0.7042839164047339
sg29
F0.14272043809256926
sg30
F0.050219105940187386
sg31
F0.0677053499828159
sg32
F0.05680947155839876
sg33
F0.19455230148877234
sg34
F0.002204777739437017
sg35
F0.7335839103440557
sg36
F0.04701979385810963
sg37
F0.9197093302584798
sg38
F1.6286748572672476
ssg1
(g5
S'\n\x00\x00\x00\x00\x00\x00\x00'
p90
tp91
Rp92
(dp93
g12
F0.021600848131460376
sg13
S'BERGSIEKER RICHARD P'
p94
sg15
F0.1338454477789103
sg16
F0.2581939067865188
sg17
I00
sg18
F0.021872022262273964
sg19
S'rick.bergsieker@enron.com'
p95
sg21
F0.007575757575757576
sg22
F0.8615748070601472
sg23
F0.8393356952427826
sg24
F0.04185540858851241
sg25
F0.3399075500770416
sg26
F0.003273892449150181
sg27
F0.04124761202684202
sg28
F0.7042839164047339
sg29
F0.02269861286254729
sg30
F0.012845039901159873
sg31
F0.0
sg32
F0.04255407986593193
sg33
F0.16875063581390032
sg34
F0.005974354199456747
sg35
F0.13450979164060467
sg36
F0.0905056909602642
sg37
F0.3507157464212679
sg38
F0.0
ssg1
(g5
S'\x0b\x00\x00\x00\x00\x00\x00\x00'
p96
tp97
Rp98
(dp99
g12
F0.03087728597932679
sg13
S'BHATNAGAR SANJAY'
p100
sg15
F0.1338454477789103
sg16
F0.6023926688974913
sg17
I00
sg18
F0.13342002529051686
sg19
S'sanjay.bhatnagar@enron.com'
p101
sg21
F0.0
sg22
F0.837179431909288
sg23
F0.0
sg24
F0.0835296249320529
sg25
F0.3399075500770416
sg26
F0.0011841738645862357
sg27
F0.04525916603744523
sg28
F0.7042839164047339
sg29
F0.14272043809256926
sg30
F0.3143253802671813
sg31
F0.0016420361247947454
sg32
F0.17462075760355225
sg33
F0.2553253454580079
sg34
F0.0013298230213129834
sg35
F0.5589748163722422
sg36
F0.44982892566236216
sg37
F0.0
sg38
F1.3866512122090215
ssg1
(g5
S'\x0c\x00\x00\x00\x00\x00\x00\x00'
p102
tp103
Rp104
(dp105
g12
F0.10270341902994963
sg13
S'BIBI PHILIPPE A'
p106
sg15
F0.1338454477789103
sg16
F0.16801609693152245
sg17
I00
sg18
F0.059197302870191953
sg19
S'philippe.bibi@enron.com'
p107
sg21
F0.043560606060606064
sg22
F0.837179431909288
sg23
F0.8393356952427826
sg24
F0.2417104547925349
sg25
F0.3399075500770416
sg26
F0.0019504040122596822
sg27
F0.0410904650286634
sg28
F0.7042839164047339
sg29
F0.11727616645649433
sg30
F0.036979842416497696
sg31
F0.013136288998357963
sg32
F0.02346503558840874
sg33
F0.1918902105815638
sg34
F0.01977068384118157
sg35
F0.6111628420285962
sg36
F0.04239927677850171
sg37
F0.42413978494623666
sg38
F6.735163030729534
ssg1
(g5
S'\r\x00\x00\x00\x00\x00\x00\x00'
p108
tp109
Rp110
(dp111
g12
F0.16021733368672142
sg13
S'BLACHMAN JEREMY M'
p112
sg15
F0.1338454477789103
sg16
F0.367692408634604
sg17
I00
sg18
F0.15022740386481176
sg19
S'jeremy.blachman@enron.com'
p113
sg21
F0.04734848484848485
sg22
F0.837179431909288
sg23
F0.8393356952427826
sg24
F0.4210907773147309
sg25
F0.3399075500770416
sg26
F0.0001393145723042631
sg27
F2.6062462842891514e-05
sg28
F0.7042839164047339
sg29
F0.09836065573770493
sg30
F0.018857617405251045
sg31
F0.003284072249589491
sg32
F0.010630627499026766
sg33
F0.2233284508827573
sg34
F0.01945436371474622
sg35
F0.4404304751540241
sg36
F0.02200178277605589
sg37
F0.29552660601047703
sg38
F23.573070607553355
ssg1
(g5
S'\x0e\x00\x00\x00\x00\x00\x00\x00'
p114
tp115
Rp116
(dp117
g12
F0.13363771966050086
sg13
S'BLAKE JR. NORMAN P'
p118
sg15
F0.1338454477789103
sg16
F0.004947181943442031
sg17
I00
sg18
F0.13342002529051686
sg19
g44
sg21
F0.12290785764622973
sg22
F0.9677610128917702
sg23
F0.8393356952427826
sg24
F0.21280397105980606
sg25
F0.3399075500770416
sg26
F0.04157082040083719
sg27
F0.04525916603744523
sg28
F0.8953819257165176
sg29
F0.14272043809256926
sg30
F0.07023610810476011
sg31
F0.0677053499828159
sg32
F0.07823137121233002
sg33
F0.2553253454580079
sg34
F1.0921242536124955e-05
sg35
F0.5589748163722422
sg36
F0.0905056909602642
sg37
F0.9197093302584798
sg38
F1.6286748572672476
ssg1
(g5
S'\x0f\x00\x00\x00\x00\x00\x00\x00'
p119
tp120
Rp121
(dp122
g12
F0.11933474688576728
sg13
S'BOWEN JR RAYMOND M'
p123
sg15
F0.1338454477789103
sg16
F0.28764079347374405
sg17
I01
sg18
F0.17829637105313392
sg19
S'raymond.bowen@enron.com'
p124
sg21
F0.26515151515151514
sg22
F1.0
sg23
F0.8393356952427826
sg24
F0.2882768617503171
sg25
F0.3399075500770416
sg26
F0.001044859292281973
sg27
F0.00015627824941719023
sg28
F0.7042839164047339
sg29
F0.1614123581336696
sg30
F0.004548720000782376
sg31
F0.02463054187192118
sg32
F0.014908786159551813
sg33
F0.25038598967753317
sg34
F0.025776845797414617
sg35
F0.644654113201578
sg36
F0.0905056909602642
sg37
F2.221913751619471
sg38
F23.57307060755336
ssg1
(g5
S'\x10\x00\x00\x00\x00\x00\x00\x00'
p125
tp126
Rp127
(dp128
g12
F0.09468592631857936
sg13
S'BROWN MICHAEL'
p129
sg15
F0.1338454477789103
sg16
F0.21494652581851584
sg17
I00
sg18
F0.13342002529051686
sg19
S'michael.brown@enron.com'
p130
sg21
F0.02462121212121212
sg22
F0.837179431909288
sg23
F0.8393356952427826
sg24
F0.13752491393368363
sg25
F0.3399075500770416
sg26
F0.002020061298411814
sg27
F0.04525916603744523
sg28
F0.7042839164047339
sg29
F0.14272043809256926
sg30
F0.07023610810476011
sg31
F0.0016420361247947454
sg32
F0.07823137121233002
sg33
F0.2553253454580079
sg34
F0.00047450915846611867
sg35
F0.5589748163722422
sg36
F0.0905056909602642
sg37
F0.26003032423606254
sg38
F0.8128645037087366
ssg1
(g5
S'\x11\x00\x00\x00\x00\x00\x00\x00'
p131
tp132
Rp133
(dp134
g12
F0.06831433872250198
sg13
S'BUCHANAN HAROLD G'
p135
sg15
F0.1338454477789103
sg16
F0.001977123110906983
sg17
I00
sg18
F0.046409024368766386
sg19
S'john.buchanan@enron.com'
p136
sg21
F0.0
sg22
F0.837179431909288
sg23
F0.8393356952427826
sg24
F0.003805037144410219
sg25
F0.3399075500770416
sg26
F0.007871273335190861
sg27
F0.0001170880275126941
sg28
F0.7042839164047339
sg29
F0.05422446406052964
sg30
F0.020083155940513367
sg31
F0.0
sg32
F0.010630627499026766
sg33
F0.2228522093914102
sg34
F0.010182431583267787
sg35
F0.24332028930120048
sg36
F0.02375348591137182
sg37
F0.0
sg38
F0.0
ssg1
(g5
S'\x12\x00\x00\x00\x00\x00\x00\x00'
p137
tp138
Rp139
(dp140
g12
F0.13363771966050086
sg13
S'BUTTS ROBERT H'
p141
sg15
F0.1338454477789103
sg16
F0.040513527108894866
sg17
I00
sg18
F0.020837786293753352
sg19
S'bob.butts@enron.com'
p142
sg21
F0.12290785764622973
sg22
F0.9788309182135962
sg23
F0.8393356952427826
sg24
F0.21280397105980606
sg25
F0.3399075500770416
sg26
F0.04157082040083719
sg27
F0.014542275100492512
sg28
F0.7042839164047339
sg29
F0.08575031525851198
sg30
F0.007921981659810014
sg31
F0.0677053499828159
sg32
F0.02614928922984047
sg33
F0.23500491996172065
sg34
F0.012277311302100349
sg35
F0.3648873192632717
sg36
F0.0905056909602642
sg37
F0.9197093302584798
sg38
F1.6286748572672476
ssg1
(g5
S'\x13\x00\x00\x00\x00\x00\x00\x00'
p143
tp144
Rp145
(dp146
g12
F0.22965809700503576
sg13
S'BUY RICHARD B'
p147
sg15
F0.0999563952741139
sg16
F0.23789039433108064
sg17
I00
sg18
F0.13802401042825052
sg19
S'rick.buy@enron.com'
p148
sg21
F0.29545454545454547
sg22
F0.8019070925999977
sg23
F0.8393356952427826
sg24
F0.4223591230295343
sg25
F0.3399075500770416
sg26
F0.07251323488436891
sg27
F0.03866607681843354
sg28
F0.7042839164047339
sg29
F0.1046658259773014
sg30
F0.06959215407585133
sg31
F0.11658456486042693
sg32
F0.05901169062831102
sg33
F0.2971503833789019
sg34
F0.02274586785228937
sg35
F0.3522318389333528
sg36
F0.07376571559552797
sg37
F1.2864974033467977
sg38
F1.607769465068481
ssg1
(g5
S'\x14\x00\x00\x00\x00\x00\x00\x00'
p149
tp150
Rp151
(dp152
g12
F0.1683673469387755
sg13
S'CALGER CHRISTOPHER F'
p153
sg15
F0.1338454477789103
sg16
F0.15602650744701793
sg17
I01
sg18
F0.060297138948715884
sg19
S'christopher.calger@enron.com'
p154
sg21
F0.3768939393939394
sg22
F0.9253138171450525
sg23
F0.8393356952427826
sg24
F0.3960862475086066
sg25
F0.3399075500770416
sg26
F0.00919476177208136
sg27
F4.671937783688701e-05
sg28
F0.7042839164047339
sg29
F0.14880201765447668
sg30
F0.0019809793061631646
sg31
F0.041050903119868636
sg32
F0.006352468838501718
sg33
F0.2158049156404368
sg34
F0.015828067004285306
sg35
F0.6895209833978159
sg36
F0.0905056909602642
sg37
F2.2385215794306705
sg38
F4.464596705976016
ssg1
(g5
S'\x15\x00\x00\x00\x00\x00\x00\x00'
p155
tp156
Rp157
(dp158
g12
F0.016896368937185262
sg13
S'CARTER REBECCA C'
p159
sg15
F0.1338454477789103
sg16
F0.23789039433108064
sg17
I00
sg18
F0.0011380535600273509
sg19
S'rebecca.carter@enron.com'
p160
sg21
F0.054924242424242424
sg22
F0.9546292006999751
sg23
F0.8931423816985028
sg24
F0.03515129552455155
sg25
F0.3399075500770416
sg26
F0.00020897185845639447
sg27
F5.1931870405465315e-05
sg28
F0.7042839164047339
sg29
F0.029003783102143764
sg30
F0.07023610810476011
sg31
F0.011494252873563218
sg32
F0.01865955826351866
sg33
F0.23526869833027395
sg34
F0.004609990696665674
sg35
F0.12327939631572998
sg36
F0.0905056909602642
sg37
F3.2506535947712423
sg38
F55.00383141762454
ssg1
(g5
S'\x16\x00\x00\x00\x00\x00\x00\x00'
p161
tp162
Rp163
(dp164
g12
F0.12158759607739197
sg13
S'CAUSEY RICHARD A'
p165
sg15
F0.1338454477789103
sg16
F0.13352579664501454
sg17
I01
sg18
F0.055312318577773856
sg19
S'richard.causey@enron.com'
p166
sg21
F0.10984848484848485
sg22
F0.9331629919684389
sg23
F0.8393356952427826
sg24
F0.2868273237905417
sg25
F0.3399075500770416
sg26
F0.002577319587628866
sg27
F0.0297201847114311
sg28
F0.7042839164047339
sg29
F0.11727616645649433
sg30
F0.050391208216248644
sg31
F0.019704433497536946
sg32
F0.16766676393354876
sg33
F0.3733517227968429
sg34
F0.018043804611342574
sg35
F0.3141171161015626
sg36
F0.0905056909602642
sg37
F0.903451407811081
sg38
F7.645320197044335
ssg1
(g5
S'\x17\x00\x00\x00\x00\x00\x00\x00'
p167
tp168
Rp169
(dp170
g12
F0.13363771966050086
sg13
S'CHAN RONNIE'
p171
sg15
F0.1338454477789103
sg16
F0.23789039433108064
sg17
I00
sg18
F0.13342002529051686
sg19
g44
sg21
F0.12290785764622973
sg22
F0.9720423809772536
sg23
F1.0
sg24
F0.21280397105980606
sg25
F0.3399075500770416
sg26
F0.04157082040083719
sg27
F0.04525916603744523
sg28
F0.7558911600052076
sg29
F0.14272043809256926
sg30
F0.07023610810476011
sg31
F0.0677053499828159
sg32
F0.0
sg33
F0.2553253454580079
sg34
F0.024130416465827257
sg35
F0.5589748163722422
sg36
F0.0905056909602642
sg37
F0.9197093302584798
sg38
F1.6286748572672476
ssg1
(g5
S'\x18\x00\x00\x00\x00\x00\x00\x00'
p172
tp173
Rp174
(dp175
g12
F0.13363771966050086
sg13
S'CHRISTODOULOU DIOMEDES'
p176
sg15
F0.1338454477789103
sg16
F0.23789039433108064
sg17
I00
sg18
F0.13342002529051686
sg19
S'diomedes.christodoulou@enron.com'
p177
sg21
F0.12290785764622973
sg22
F0.837179431909288
sg23
F0.8393356952427826
sg24
F0.21280397105980606
sg25
F0.3399075500770416
sg26
F0.04157082040083719
sg27
F0.04525916603744523
sg28
F0.7042839164047339
sg29
F0.14272043809256926
sg30
F0.12324631712946361
sg31
F0.0677053499828159
sg32
F0.06234336422382861
sg33
F0.2553253454580079
sg34
F0.024130416465827257
sg35
F0.5589748163722422
sg36
F0.1490263095030048
sg37
F0.9197093302584798
sg38
F1.6286748572672476
ssg1
(g5
S'\x19\x00\x00\x00\x00\x00\x00\x00'
p178
tp179
Rp180
(dp181
g12
F0.13363771966050086
sg13
S'CLINE KENNETH W'
p182
sg15
F0.1338454477789103
sg16
F0.23789039433108064
sg17
I00
sg18
F0.13342002529051686
sg19
g44
sg21
F0.12290785764622973
sg22
F0.837179431909288
sg23
F0.8288869103393041
sg24
F0.21280397105980606
sg25
F0.3399075500770416
sg26
F0.04157082040083719
sg27
F0.04525916603744523
sg28
F0.7042839164047339
sg29
F0.14272043809256926
sg30
F0.003274568226419523
sg31
F0.0677053499828159
sg32
F0.04274669001796021
sg33
F0.2553253454580079
sg34
F0.024130416465827257
sg35
F0.5589748163722422
sg36
F0.0905056909602642
sg37
F0.9197093302584798
sg38
F1.6286748572672476
ssg1
(g5
S'\x1a\x00\x00\x00\x00\x00\x00\x00'
p183
tp184
Rp185
(dp186
g12
F0.11270871985157697
sg13
S'COLWELL WESLEY'
p187
sg15
F0.0030610548729410637
sg16
F0.07158760361306125
sg17
I01
sg18
F0.13342002529051686
sg19
S'wes.colwell@enron.com'
p188
sg21
F0.4545454545454546
sg22
F0.9591189286989521
sg23
F0.8393356952427826
sg24
F0.20474723681826418
sg25
F0.3399075500770416
sg26
F0.0019504040122596822
sg27
F0.00982052905448184
sg28
F0.7042839164047339
sg29
F0.14249684741488022
sg30
F0.013639497584415078
sg31
F0.0180623973727422
sg32
F0.04520140015427822
sg33
F0.2593355485914865
sg34
F0.014389736465396341
sg35
F0.5494690110507979
sg36
F0.0905056909602642
sg37
F4.032921810699589
sg38
F9.260849167253108
ssg1
(g5
S'\x1b\x00\x00\x00\x00\x00\x00\x00'
p189
tp190
Rp191
(dp192
g12
F0.046846011131725415
sg13
S'CORDES WILLIAM R'
p193
sg15
F0.1338454477789103
sg16
F0.23789039433108064
sg17
I00
sg18
F0.13342002529051686
sg19
S'bill.cordes@enron.com'
p194
sg21
F0.01893939393939394
sg22
F0.837179431909288
sg23
F0.8393356952427826
sg24
F0.01014676571842725
sg25
F0.3399075500770416
sg26
F0.0
sg27
F0.04525916603744523
sg28
F0.7042839164047339
sg29
F0.14272043809256926
sg30
F0.020565620945501014
sg31
F0.0
sg32
F0.024025349858655246
sg33
F0.2553253454580079
sg34
F0.024130416465827257
sg35
F0.5589748163722422
sg36
F0.01869754023906812
sg37
F0.4042904290429043
sg38
F0.0
ssg1
(g5
S'\x1c\x00\x00\x00\x00\x00\x00\x00'
p195
tp196
Rp197
(dp198
g12
F0.0029817121653856345
sg13
S'COX DAVID'
p199
sg15
F0.1338454477789103
sg16
F0.12122126719594077
sg17
I00
sg18
F0.13342002529051686
sg19
S'chip.cox@enron.com'
p200
sg21
F0.0
sg22
F0.9884639964059342
sg23
F0.8393356952427826
sg24
F0.012502264903062148
sg25
F0.3399075500770416
sg26
F0.0014628030091947616
sg27
F4.7491598958157875e-05
sg28
F0.7042839164047339
sg29
F0.09205548549810845
sg30
F0.009511467508589834
sg31
F0.006568144499178982
sg32
F0.02346503558840874
sg33
F0.282513834860337
sg34
F0.010633920191595867
sg35
F0.32584416810460565
sg36
F0.0031378116643783274
sg37
F0.0
sg38
F4.490108687153023
ssg1
(g5
S'\x1d\x00\x00\x00\x00\x00\x00\x00'
p201
tp202
Rp203
(dp204
g12
F0.13363771966050086
sg13
S'CUMBERLAND MICHAEL S'
p205
sg15
F0.1338454477789103
sg16
F0.09708899241082168
sg17
I00
sg18
F0.04053751902747935
sg19
g44
sg21
F0.12290785764622973
sg22
F0.837179431909288
sg23
F0.8393356952427826
sg24
F0.21280397105980606
sg25
F0.3399075500770416
sg26
F0.04157082040083719
sg27
F6.863115215294764e-05
sg28
F0.7042839164047339
sg29
F0.032156368221942
sg30
F0.003649904810958475
sg31
F0.0677053499828159
sg32
F0.011913722057779788
sg33
F0.16602912725370708
sg34
F0.007800412989055727
sg35
F0.19367907760428232
sg36
F0.0905056909602642
sg37
F0.9197093302584798
sg38
F1.6286748572672476
ssg1
(g5
S'\x1e\x00\x00\x00\x00\x00\x00\x00'
p206
tp207
Rp208
(dp209
g12
F0.04353299761463027
sg13
S'DEFFNER JOSEPH M'
p210
sg15
F0.1338454477789103
sg16
F0.18143166458893775
sg17
I00
sg18
F0.05242611073495565
sg19
S'joseph.deffner@enron.com'
p211
sg21
F0.2178030303030303
sg22
F0.837179431909288
sg23
F0.8393356952427826
sg24
F0.09965573473455336
sg25
F0.3399075500770416
sg26
F0.004318751741432154
sg27
F0.002466377733698967
sg28
F0.7042839164047339
sg29
F0.06683480453972258
sg30
F0.002657082292882337
sg31
F0.006568144499178982
sg32
F0.0074255728437744965
sg33
F0.1851346034906971
sg34
F0.011669613197302867
sg35
F0.3610065502588823
sg36
F0.00022059735083403712
sg37
F5.0031709791983765
sg38
F1.5208432650034427
ssg1
(g5
S'\x1f\x00\x00\x00\x00\x00\x00\x00'
p212
tp213
Rp214
(dp215
g12
F0.20116618075801748
sg13
S'DELAINEY DAVID W'
p216
sg15
F0.1338454477789103
sg16
F0.3762920193338145
sg17
I01
sg18
F0.24147104996226515
sg19
S'david.delainey@enron.com'
p217
sg21
F0.125
sg22
F0.837179431909288
sg23
F0.8393356952427826
sg24
F0.3795977532161623
sg25
F0.3399075500770416
sg26
F0.21294232376706607
sg27
F0.00016013935502354453
sg28
F0.7042839164047339
sg29
F0.3694829760403531
sg30
F0.07305153818319327
sg31
F1.0
sg32
F0.08762763902046773
sg33
F0.3283149423693779
sg34
F0.045846342945652235
sg35
F1.1253918977122221
sg36
F0.0664357679777158
sg37
F0.6213768115942029
sg38
F4.696107294733398
ssg1
(g5
S' \x00\x00\x00\x00\x00\x00\x00'
p218
tp219
Rp220
(dp221
g12
F0.14073681420620193
sg13
S'DERRICK JR. JAMES V'
p222
sg15
F0.1338454477789103
sg16
F0.22297749491503183
sg17
I00
sg18
F0.08170996044096669
sg19
S'james.derrick@enron.com'
p223
sg21
F0.12121212121212122
sg22
F0.6337526505236255
sg23
F0.317690695676178
sg24
F0.25348795071570934
sg25
F0.3399075500770416
sg26
F0.062482585678461974
sg27
F0.0007220267483882538
sg28
F0.7042839164047339
sg29
F0.09205548549810845
sg30
F0.17935789368166438
sg31
F0.03284072249589491
sg32
F0.11914536764097848
sg33
F0.4428397676949822
sg34
F0.005318992740849971
sg35
F0.2078753811503084
sg36
F0.2569153920483785
sg37
F0.8612680477087259
sg38
F0.5255980068573771
ssg1
(g5
S'!\x00\x00\x00\x00\x00\x00\x00'
p224
tp225
Rp226
(dp227
g12
F0.13363771966050086
sg13
S'DETMERING TIMOTHY J'
p228
sg15
F0.1351210595870497
sg16
F0.22792467685847387
sg17
I00
sg18
F0.06824657209875633
sg19
S'timothy.detmering@enron.com'
p229
sg21
F0.12290785764622973
sg22
F0.7789649535771258
sg23
F0.8901225879946969
sg24
F0.21280397105980606
sg25
F0.3399075500770416
sg26
F0.04157082040083719
sg27
F0.00010646998709521977
sg28
F0.7042839164047339
sg29
F0.04476670870113494
sg30
F0.04072972424517046
sg31
F0.0677053499828159
sg32
F0.019186876927883692
sg33
F0.18907687473948512
sg34
F0.011630350799290591
sg35
F0.23676458986756385
sg36
F0.05876952224671136
sg37
F0.9197093302584798
sg38
F1.6286748572672476
ssg1
(g5
S'"\x00\x00\x00\x00\x00\x00\x00'
p230
tp231
Rp232
(dp233
g12
F0.16664457990988601
sg13
S'DIETRICH JANET R'
p234
sg15
F0.1338454477789103
sg16
F0.014552850862804279
sg17
I00
sg18
F0.09597571889742171
sg19
S'janet.dietrich@enron.com'
p235
sg21
F0.5776515151515151
sg22
F0.837179431909288
sg23
F0.8393356952427826
sg24
F0.3442652654466389
sg25
F0.3399075500770416
sg26
F0.0035525215937587075
sg27
F4.546451851482187e-05
sg28
F0.7042839164047339
sg29
F0.06683480453972258
sg30
F0.037413225571949225
sg31
F0.022988505747126436
sg32
F0.019186876927883692
sg33
F0.22472746653030617
sg34
F0.013618393535435544
sg35
F0.2974038090297672
sg36
F0.044853804529663005
sg37
F3.4663684559310806
sg38
F6.471038990308767
ssg1
(g5
S'#\x00\x00\x00\x00\x00\x00\x00'
p236
tp237
Rp238
(dp239
g12
F0.13363771966050086
sg13
S'DIMICHELE RICHARD G'
p240
sg15
F0.1338454477789103
sg16
F0.15600026244997048
sg17
I00
sg18
F0.12324921087795601
sg19
S'richard.dimichele@enron.com'
p241
sg21
F0.12290785764622973
sg22
F0.837179431909288
sg23
F0.8393356952427826
sg24
F0.21280397105980606
sg25
F0.3399075500770416
sg26
F0.04157082040083719
sg27
F0.03616765190820183
sg28
F0.7042839164047339
sg29
F0.11727616645649433
sg30
F0.1688828001225722
sg31
F0.0677053499828159
sg32
F0.006352468838501718
sg33
F0.23615006018288034
sg34
F0.022866078770354993
sg35
F0.49661713558604564
sg36
F0.23827286281864707
sg37
F0.9197093302584798
sg38
F1.6286748572672476
ssg1
(g5
S'$\x00\x00\x00\x00\x00\x00\x00'
p242
tp243
Rp244
(dp245
g12
F0.007884972170686457
sg13
S'DODSON KEITH'
p246
sg15
F0.1338454477789103
sg16
F0.12254663954683638
sg17
I00
sg18
F0.13342002529051686
sg19
S'keith.dodson@enron.com'
p247
sg21
F0.01893939393939394
sg22
F0.837179431909288
sg23
F0.8393356952427826
sg24
F0.020293531436854504
sg25
F0.3399075500770416
sg26
F0.0001393145723042631
sg27
F7.451933820263796e-05
sg28
F0.7042839164047339
sg29
F0.0
sg30
F0.07023610810476011
sg31
F0.0049261083743842365
sg32
F0.07823137121233002
sg33
F0.1985323839712779
sg34
F0.0030880078818346663
sg35
F0.0
sg36
F0.0905056909602642
sg37
F2.4019607843137254
sg38
F35.359605911330036
ssg1
(g5
S'%\x00\x00\x00\x00\x00\x00\x00'
p248
tp249
Rp250
(dp251
g12
F0.05353829843625762
sg13
S'DONAHUE JR JEFFREY M'
p252
sg15
F0.1338454477789103
sg16
F0.4204448526999541
sg17
I00
sg18
F0.13342002529051686
sg19
S'jeff.donahue@enron.com'
p253
sg21
F0.3560606060606061
sg22
F0.9146103969313437
sg23
F0.8393356952427826
sg24
F0.1395180286283747
sg25
F0.3399075500770416
sg26
F0.0006965728615213152
sg27
F8.581307210122428e-05
sg28
F0.7042839164047339
sg29
F0.09205548549810845
sg30
F0.021437704966129654
sg31
F0.0180623973727422
sg32
F0.019186876927883692
sg33
F0.25038598967753317
sg34
F0.008455146790045486
sg35
F0.36765429893527496
sg36
F0.0220194596858851
sg37
F6.650577557755776
sg38
F25.930377668308697
ssg1
(g5
S'&\x00\x00\x00\x00\x00\x00\x00'
p254
tp255
Rp256
(dp257
g12
F0.13363771966050086
sg13
S'DUNCAN JOHN H'
p258
sg15
F0.1338454477789103
sg16
F0.23789039433108064
sg17
I00
sg18
F0.13342002529051686
sg19
g44
sg21
F0.12290785764622973
sg22
F0.993102145165208
sg23
F0.8393356952427826
sg24
F0.21280397105980606
sg25
F0.3399075500770416
sg26
F0.04157082040083719
sg27
F0.04525916603744523
sg28
F0.7903732772890435
sg29
F0.14272043809256926
sg30
F0.006987429830680863
sg31
F0.0677053499828159
sg32
F0.07823137121233002
sg33
F0.2553253454580079
sg34
F0.0007468546266260375
sg35
F0.5589748163722422
sg36
F0.010540534566643858
sg37
F0.9197093302584798
sg38
F1.6286748572672476
ssg1
(g5
S"'\x00\x00\x00\x00\x00\x00\x00"
p259
tp260
Rp261
(dp262
g12
F0.05612244897959183
sg13
S'DURAN WILLIAM D'
p263
sg15
F0.1338454477789103
sg16
F0.11214049821752728
sg17
I00
sg18
F0.20408824613476467
sg19
S'w.duran@enron.com'
p264
sg21
F0.20075757575757577
sg22
F0.837179431909288
sg23
F0.8393356952427826
sg24
F0.10817177024823338
sg25
F0.3399075500770416
sg26
F0.0
sg27
F0.0001511622844887708
sg28
F0.7042839164047339
sg29
F0.08575031525851198
sg30
F0.032845761153743346
sg31
F0.0049261083743842365
sg32
F0.010630627499026766
sg33
F0.18924972609362242
sg34
F0.020211685739169923
sg35
F0.4531066809369702
sg36
F0.041995503541628586
sg37
F3.577134986225896
sg38
F0.0
ssg1
(g5
S'(\x00\x00\x00\x00\x00\x00\x00'
p265
tp266
Rp267
(dp268
g12
F0.13363771966050086
sg13
S'ECHOLS JOHN B'
p269
sg15
F0.1338454477789103
sg16
F0.09352842114471928
sg17
I00
sg18
F0.42660775921253075
sg19
S'john.echols@enron.com'
p270
sg21
F0.12290785764622973
sg22
F0.837179431909288
sg23
F0.8393356952427826
sg24
F0.21280397105980606
sg25
F0.3399075500770416
sg26
F0.04157082040083719
sg27
F0.005190580794262242
sg28
F0.7042839164047339
sg29
F0.016393442622950817
sg30
F0.019969792963834682
sg31
F0.0677053499828159
sg32
F0.02546249180371498
sg33
F0.1636398173897465
sg34
F0.02599638111930569
sg35
F0.10018003493554382
sg36
F0.01722945394860667
sg37
F0.9197093302584798
sg38
F1.6286748572672476
ssg1
(g5
S')\x00\x00\x00\x00\x00\x00\x00'
p271
tp272
Rp273
(dp274
g12
F0.13363771966050086
sg13
S'ELLIOTT STEVEN'
p275
sg15
F0.1338454477789103
sg16
F0.3429521247512193
sg17
I00
sg18
F0.13342002529051686
sg19
S'steven.elliott@enron.com'
p276
sg21
F0.12290785764622973
sg22
F0.8858598685391658
sg23
F0.8393356952427826
sg24
F0.21280397105980606
sg25
F0.3399075500770416
sg26
F0.04157082040083719
sg27
F0.0012509016888186339
sg28
F0.7042839164047339
sg29
F0.03530895334174023
sg30
F0.13548825540002218
sg31
F0.0677053499828159
sg32
F0.11921400664827513
sg33
F0.15346319391491214
sg34
F0.002043044855937851
sg35
F0.23008092325588717
sg36
F0.14212995580685178
sg37
F0.9197093302584798
sg38
F1.6286748572672476
ssg1
(g5
S'*\x00\x00\x00\x00\x00\x00\x00'
p277
tp278
Rp279
(dp280
g12
F0.11250993904055127
sg13
S'FALLON JAMES B'
p281
sg15
F0.1338454477789103
sg16
F0.418940139535901
sg17
I00
sg18
F0.06010861250645412
sg19
S'jim.fallon@enron.com'
p282
sg21
F0.07954545454545454
sg22
F0.837179431909288
sg23
F0.8393356952427826
sg24
F0.2902699764450081
sg25
F0.3399075500770416
sg26
F0.004388409027584286
sg27
F0.03875382044333794
sg28
F0.7042839164047339
sg29
F0.3064312736443884
sg30
F0.046934411653485816
sg31
F0.06075533661740558
sg32
F0.09231179299615988
sg33
F0.2737812404065248
sg34
F0.03549830631420183
sg35
F1.1192559182995268
sg36
F0.027096460392466423
sg37
F0.7070082449941107
sg38
F13.844501785388482
ssg1
(g5
S'+\x00\x00\x00\x00\x00\x00\x00'
p283
tp284
Rp285
(dp286
g12
F0.13363771966050086
sg13
S'FASTOW ANDREW S'
p287
sg15
F0.1338454477789103
sg16
F0.24396037005445836
sg17
I01
sg18
F0.32836144912021975
sg19
S'andrew.fastow@enron.com'
p288
sg21
F0.12290785764622973
sg22
F0.6046236491926908
sg23
F0.8393356952427826
sg24
F0.21280397105980606
sg25
F0.3399075500770416
sg26
F0.04157082040083719
sg27
F0.02678275209375691
sg28
F0.7042839164047339
sg29
F0.15510718789407316
sg30
F0.035973267200855405
sg31
F0.0677053499828159
sg32
F0.11962278554336227
sg33
F0.3963166456754302
sg34
F0.02340617332166405
sg35
F0.39137187293692594
sg36
F0.0905056909602642
sg37
F0.9197093302584798
sg38
F1.6286748572672476
ssg1
(g5
S',\x00\x00\x00\x00\x00\x00\x00'
p289
tp290
Rp291
(dp292
g12
F0.058242777630532726
sg13
S'FITZGERALD JAY L'
p293
sg15
F0.1338454477789103
sg16
F0.10376396999322003
sg17
I00
sg18
F0.09597571889742171
sg19
S'jay.fitzgerald@enron.com'
p294
sg21
F0.001893939393939394
sg22
F0.837179431909288
sg23
F0.8393356952427826
sg24
F0.13063960862475085
sg25
F0.3399075500770416
sg26
F0.00027862914460852607
sg27
F0.027550146833019828
sg28
F0.7042839164047339
sg29
F0.03530895334174023
sg30
F0.03244491586201501
sg31
F0.013136288998357963
sg32
F0.06275377253155189
sg33
F0.1788651408333416
sg34
F0.013660813534074976
sg35
F0.1974054484693555
sg36
F0.019064794785783375
sg37
F0.03251801289343952
sg38
F47.14614121510673
ssg1
(g5
S'-\x00\x00\x00\x00\x00\x00\x00'
p295
tp296
Rp297
(dp298
g12
F0.030479724357275376
sg13
S'FOWLER PEGGY'
p299
sg15
F0.1338454477789103
sg16
F0.23789039433108064
sg17
I00
sg18
F0.13342002529051686
sg19
S'kulvinder.fowler@enron.com'
p300
sg21
F0.0
sg22
F0.837179431909288
sg23
F0.8393356952427826
sg24
F0.0014495379597753216
sg25
F0.3399075500770416
sg26
F0.0016717748676511562
sg27
F0.04525916603744523
sg28
F0.7042839164047339
sg29
F0.14272043809256926
sg30
F0.03781380599690962
sg31
F0.0
sg32
F0.03582738925866749
sg33
F0.2553253454580079
sg34
F0.024130416465827257
sg35
F0.5589748163722422
sg36
F0.038288565272979684
sg37
F0.0
sg38
F0.0
ssg1
(g5
S'.\x00\x00\x00\x00\x00\x00\x00'
p301
tp302
Rp303
(dp304
g12
F0.0
sg13
S'FOY JOE'
p305
sg15
F0.027074811470706867
sg16
F0.23789039433108064
sg17
I00
sg18
F0.13342002529051686
sg19
S'tracy.foy@enron.com'
p306
sg21
F0.0
sg22
F0.837179431909288
sg23
F0.8393356952427826
sg24
F0.0
sg25
F0.3399075500770416
sg26
F6.965728615213149e-05
sg27
F0.04525916603744523
sg28
F0.7042839164047339
sg29
F0.14272043809256926
sg30
F0.006410509261372157
sg31
F0.0
sg32
F0.07823137121233002
sg33
F0.2553253454580079
sg34
F0.0017536464131370864
sg35
F0.5589748163722422
sg36
F0.009715922740080611
sg37
F0.0
sg38
F0.0
ssg1
(g5
S'/\x00\x00\x00\x00\x00\x00\x00'
p307
tp308
Rp309
(dp310
g12
F0.21322554996024382
sg13
S'FREVERT MARK A'
p311
sg15
F1.0
sg16
F0.37984821643374234
sg17
I00
sg18
F0.304910099284683
sg19
S'mark.frevert@enron.com'
p312
sg21
F0.45833333333333337
sg22
F0.039210196049553
sg23
F0.8393356952427826
sg24
F0.5394093132813915
sg25
F0.019722650231124808
sg26
F0.0006269155753691836
sg27
F0.7169705340690927
sg28
F0.7042839164047339
sg29
F0.24337957124842372
sg30
F0.2973310190769271
sg31
F0.009852216748768473
sg32
F0.28217400850580554
sg33
F0.9546931393316955
sg34
F0.1665936765233214
sg35
F0.25492963259251483
sg36
F0.3035569524553155
sg37
F2.1495235135695054
sg38
F15.715380405035576
ssg1
(g5
S'0\x00\x00\x00\x00\x00\x00\x00'
p313
tp314
Rp315
(dp316
g12
F0.13363771966050086
sg13
S'FUGH JOHN L'
p317
sg15
F0.00664119137022126
sg16
F0.23789039433108064
sg17
I00
sg18
F0.13342002529051686
sg19
g44
sg21
F0.12290785764622973
sg22
F0.837179431909288
sg23
F0.8393356952427826
sg24
F0.21280397105980606
sg25
F0.3399075500770416
sg26
F0.04157082040083719
sg27
F0.04525916603744523
sg28
F0.7042839164047339
sg29
F0.14272043809256926
sg30
F0.0030068490471316153
sg31
F0.0677053499828159
sg32
F0.07823137121233002
sg33
F0.2553253454580079
sg34
F0.0004870912796195854
sg35
F0.5589748163722422
sg36
F0.00485095758616234
sg37
F0.9197093302584798
sg38
F1.6286748572672476
ssg1
(g5
S'1\x00\x00\x00\x00\x00\x00\x00'
p318
tp319
Rp320
(dp321
g12
F0.13363771966050086
sg13
S'GAHN ROBERT S'
p322
sg15
F0.010151223806591309
sg16
F0.21841086542877763
sg17
I00
sg18
F0.13342002529051686
sg19
g44
sg21
F0.12290785764622973
sg22
F0.9999403462713422
sg23
F0.8393356952427826
sg24
F0.21280397105980606
sg25
F0.3399075500770416
sg26
F0.04157082040083719
sg27
F0.007388708215959745
sg28
F0.7042839164047339
sg29
F0.05546910466582598
sg30
F0.0059046748577054236
sg31
F0.0677053499828159
sg32
F0.013776004916481063
sg33
F0.17242912869413504
sg34
F0.008694863718391465
sg35
F0.3216921936908952
sg36
F0.002138527506422004
sg37
F0.9197093302584798
sg38
F1.6286748572672476
ssg1
(g5
S'2\x00\x00\x00\x00\x00\x00\x00'
p323
tp324
Rp325
(dp326
g12
F0.010071561091969255
sg13
S'GARLAND C KEVIN'
p327
sg15
F0.1338454477789103
sg16
F0.21108413708636792
sg17
I00
sg18
F0.060297138948715884
sg19
S'kevin.garland@enron.com'
p328
sg21
F0.01893939393939394
sg22
F0.837179431909288
sg23
F0.8393356952427826
sg24
F0.03188983511505707
sg25
F0.3399075500770416
sg26
F0.0022290331568682086
sg27
F0.00587003885334044
sg28
F0.7042839164047339
sg29
F0.09836065573770493
sg30
F0.017671808885179847
sg31
F0.04433497536945813
sg32
F0.015441875660336446
sg33
F0.20838401088963532
sg34
F0.015124820097635522
sg35
F0.4720163284974818
sg36
F0.01824312425723125
sg37
F1.880482456140351
sg38
F19.889778325123153
ssg1
(g5
S'3\x00\x00\x00\x00\x00\x00\x00'
p329
tp330
Rp331
(dp332
g12
F0.13363771966050086
sg13
S'GATHMANN WILLIAM D'
p333
sg15
F0.1338454477789103
sg16
F0.23789039433108064
sg17
I00
sg18
F0.13342002529051686
sg19
g44
sg21
F0.12290785764622973
sg22
F0.837179431909288
sg23
F0.9844640225813852
sg24
F0.21280397105980606
sg25
F0.3399075500770416
sg26
F0.04157082040083719
sg27
F0.04525916603744523
sg28
F0.7042839164047339
sg29
F0.14272043809256926
sg30
F0.03904873711525046
sg31
F0.0677053499828159
sg32
F0.015720641005499678
sg33
F0.2553253454580079
sg34
F0.024130416465827257
sg35
F0.5589748163722422
sg36
F0.05078727627096763
sg37
F0.9197093302584798
sg38
F1.6286748572672476
ssg1
(g5
S'4\x00\x00\x00\x00\x00\x00\x00'
p334
tp335
Rp336
(dp337
g12
F0.007421150278293135
sg13
S'GIBBS DANA R'
p338
sg15
F0.0773713594376969
sg16
F0.23789039433108064
sg17
I00
sg18
F0.0773586834747413
sg19
S'dana.gibbs@enron.com'
p339
sg21
F0.0
sg22
F0.837179431909288
sg23
F0.8393356952427826
sg24
F0.003805037144410219
sg25
F0.3399075500770416
sg26
F0.0
sg27
F0.04525916603744523
sg28
F0.7042839164047339
sg29
F0.14272043809256926
sg30
F0.044609207420833366
sg31
F0.0
sg32
F0.07823137121233002
sg33
F0.2553253454580079
sg34
F0.009331569261366239
sg35
F0.5589748163722422
sg36
F0.06431459704173566
sg37
F0.0
sg38
F0.0
ssg1
(g5
S'5\x00\x00\x00\x00\x00\x00\x00'
p340
tp341
Rp342
(dp343
g12
F0.13363771966050086
sg13
S'GILLIS JOHN'
p344
sg15
F0.1338454477789103
sg16
F0.23789039433108064
sg17
I00
sg18
F0.13342002529051686
sg19
g44
sg21
F0.12290785764622973
sg22
F0.837179431909288
sg23
F0.8393356952427826
sg24
F0.21280397105980606
sg25
F0.3399075500770416
sg26
F0.04157082040083719
sg27
F0.04525916603744523
sg28
F0.7042839164047339
sg29
F0.14272043809256926
sg30
F0.0011581401300047593
sg31
F0.0677053499828159
sg32
F0.0029450275554044423
sg33
F0.2553253454580079
sg34
F0.024130416465827257
sg35
F0.5589748163722422
sg36
F0.0
sg37
F0.9197093302584798
sg38
F1.6286748572672476
ssg1
(g5
S'6\x00\x00\x00\x00\x00\x00\x00'
p345
tp346
Rp347
(dp348
g12
F0.05406838059899284
sg13
S'GLISAN JR BEN F'
p349
sg15
F0.1338454477789103
sg16
F0.550401329746517
sg17
I01
sg18
F0.00035459518920706763
sg19
S'ben.glisan@enron.com'
p350
sg21
F0.09848484848484848
sg22
F0.837179431909288
sg23
F0.8393356952427826
sg24
F0.15799963761551006
sg25
F0.3399075500770416
sg26
F0.00027862914460852607
sg27
F0.019335065489660103
sg28
F0.7042839164047339
sg29
F0.06683480453972258
sg30
F0.015275640733086017
sg31
F0.009852216748768473
sg32
F0.024533387140159495
sg33
F0.24712161983325248
sg34
F0.012284090004364152
sg35
F0.2704530853464782
sg36
F0.010918476800191599
sg37
F1.8214869281045751
sg38
F35.35960591133005
ssg1
(g5
S'7\x00\x00\x00\x00\x00\x00\x00'
p351
tp352
Rp353
(dp354
g12
F0.13363771966050086
sg13
S'GOLD JOSEPH'
p355
sg15
F0.1338454477789103
sg16
F0.23789039433108064
sg17
I00
sg18
F0.046409024368766386
sg19
S'joe.gold@enron.com'
p356
sg21
F0.12290785764622973
sg22
F0.837179431909288
sg23
F0.8393356952427826
sg24
F0.21280397105980606
sg25
F0.3399075500770416
sg26
F0.04157082040083719
sg27
F0.0790837441951897
sg28
F0.7042839164047339
sg29
F0.08575031525851198
sg30
F0.017294027376629134
sg31
F0.0677053499828159
sg32
F0.02774319424893379
sg33
F0.24523555948472292
sg34
F0.02073032405624797
sg35
F0.3496650952198221
sg36
F0.012426605514071766
sg37
F0.9197093302584798
sg38
F1.6286748572672476
ssg1
(g5
S'8\x00\x00\x00\x00\x00\x00\x00'
p357
tp358
Rp359
(dp360
g12
F0.13363771966050086
sg13
S'GRAMM WENDY L'
p361
sg15
F0.1338454477789103
sg16
F0.23789039433108064
sg17
I00
sg18
F0.13342002529051686
sg19
g44
sg21
F0.12290785764622973
sg22
F0.837179431909288
sg23
F0.8393356952427826
sg24
F0.21280397105980606
sg25
F0.3399075500770416
sg26
F0.04157082040083719
sg27
F0.04525916603744523
sg28
F0.9466029348857106
sg29
F0.14272043809256926
sg30
F0.07023610810476011
sg31
F0.0677053499828159
sg32
F0.07823137121233002
sg33
F0.2553253454580079
sg34
F0.0011504867557242011
sg35
F0.5589748163722422
sg36
F0.0905056909602642
sg37
F0.9197093302584798
sg38
F1.6286748572672476
ssg1
(g5
S'9\x00\x00\x00\x00\x00\x00\x00'
p362
tp363
Rp364
(dp365
g12
F0.13363771966050086
sg13
S'GRAY RODNEY'
p366
sg15
F0.013339089136378726
sg16
F0.23789039433108064
sg17
I00
sg18
F0.058390401817418544
sg19
g44
sg21
F0.12290785764622973
sg22
F0.837179431909288
sg23
F0.8393356952427826
sg24
F0.21280397105980606
sg25
F0.3399075500770416
sg26
F0.04157082040083719
sg27
F0.06571900977699509
sg28
F0.7042839164047339
sg29
F0.14272043809256926
sg30
F0.07023610810476011
sg31
F0.0677053499828159
sg32
F0.07823137121233002
sg33
F0.005525841727577263
sg34
F0.011071011299816642
sg35
F25.827818661600226
sg36
F0.0905056909602642
sg37
F0.9197093302584798
sg38
F1.6286748572672476
ssg1
(g5
S':\x00\x00\x00\x00\x00\x00\x00'
p367
tp368
Rp369
(dp370
g12
F0.26186058839120063
sg13
S'HAEDICKE MARK E'
p371
sg15
F0.33487401287640234
sg16
F0.3325284867572119
sg17
I00
sg18
F0.18007978785751813
sg19
S'mark.haedicke@enron.com'
p372
sg21
F0.34090909090909094
sg22
F0.7335130937080159
sg23
F0.8843850965968516
sg24
F0.33429969197318354
sg25
F0.3399075500770416
sg26
F0.1343689049874617
sg27
F0.005056117791520954
sg28
F0.7042839164047339
sg29
F0.13619167717528374
sg30
F0.015775790688425405
sg31
F0.10016420361247948
sg32
F0.03338320241229109
sg33
F0.33638313943072484
sg34
F0.03726274843835164
sg35
F0.40487070013606086
sg36
F0.017442392275906802
sg37
F1.3018724696356276
sg38
F0.7454418388080638
ssg1
(g5
S';\x00\x00\x00\x00\x00\x00\x00'
p373
tp374
Rp375
(dp376
g12
F0.06546514709780014
sg13
S'HANNON KEVIN P'
p377
sg15
F0.1338454477789103
sg16
F0.1482448658224526
sg17
I01
sg18
F0.304910099284683
sg19
S'kevin.hannon@enron.com'
p378
sg21
F0.06060606060606061
sg22
F0.11056633080761147
sg23
F0.8393356952427826
sg24
F0.1871715890559884
sg25
F0.3399075500770416
sg26
F0.0013931457230426303
sg27
F0.0010953956605227145
sg28
F0.7042839164047339
sg29
F0.18032786885245902
sg30
F0.1296271613128264
sg31
F0.034482758620689655
sg32
F0.05571260528551587
sg33
F0.2185993458656567
sg34
F0.0027861625056748696
sg35
F0.824924100931583
sg36
F0.16099086913346827
sg37
F0.9257759784075575
sg38
F24.751724137931035
ssg1
(g5
S'<\x00\x00\x00\x00\x00\x00\x00'
p379
tp380
Rp381
(dp382
g12
F0.034190299496421946
sg13
S'HAUG DAVID L'
p383
sg15
F0.1338454477789103
sg16
F0.001430352339085362
sg17
I00
sg18
F0.13342002529051686
sg19
S'david.haug@enron.com'
p384
sg21
F0.007575757575757576
sg22
F0.837179431909288
sg23
F0.8393356952427826
sg24
F0.08497916289182823
sg25
F0.3399075500770416
sg26
F0.00048760100306492065
sg27
F0.04525916603744523
sg28
F0.7042839164047339
sg29
F0.14272043809256926
sg30
F0.04458932203887104
sg31
F0.011494252873563218
sg32
F0.14833351143718676
sg33
F0.2553253454580079
sg34
F3.1576006271554906e-06
sg35
F0.5589748163722422
sg36
F0.0905056909602642
sg37
F0.22157622739018087
sg38
F23.573070607553362
ssg1
(g5
S'=\x00\x00\x00\x00\x00\x00\x00'
p385
tp386
Rp387
(dp388
g12
F0.02961834084283064
sg13
S'HAYES ROBERT E'
p389
sg15
F0.0
sg16
F0.23789039433108064
sg17
I00
sg18
F0.13342002529051686
sg19
S'robert.hayes@enron.com'
p390
sg21
F0.030303030303030304
sg22
F0.837179431909288
sg23
F0.8393356952427826
sg24
F0.00869722775865193
sg25
F0.3399075500770416
sg26
F0.0
sg27
F0.04525916603744523
sg28
F0.7042839164047339
sg29
F0.14272043809256926
sg30
F0.0024983048526851788
sg31
F0.0
sg32
F0.00807631951532578
sg33
F0.2553253454580079
sg34
F7.54444455656448e-05
sg35
F0.5589748163722422
sg36
F0.0905056909602642
sg37
F1.023117076808352
sg38
F0.0
ssg1
(g5
S'>\x00\x00\x00\x00\x00\x00\x00'
p391
tp392
Rp393
(dp394
g12
F0.17174662072621255
sg13
S'HAYSLETT RODERICK J'
p395
sg15
F0.1338454477789103
sg16
F0.23789039433108064
sg17
I00
sg18
F0.13342002529051686
sg19
S'rod.hayslett@enron.com'
p396
sg21
F0.06628787878787878
sg22
F0.837179431909288
sg23
F0.8393356952427826
sg24
F0.10309838738901975
sg25
F0.3399075500770416
sg26
F0.07307049317358597
sg27
F0.04525916603744523
sg28
F0.7042839164047339
sg29
F0.14272043809256926
sg30
F0.006476298091655312
sg31
F0.06239737274220033
sg32
F0.02133193077114533
sg33
F0.2553253454580079
sg34
F0.024130416465827257
sg35
F0.5589748163722422
sg36
F0.0905056909602642
sg37
F0.38596322016460904
sg38
F0.8539339209599884
ssg1
(g5
S'?\x00\x00\x00\x00\x00\x00\x00'
p397
tp398
Rp399
(dp400
g12
F0.13363771966050086
sg13
S'HERMANN ROBERT J'
p401
sg15
F0.1338454477789103
sg16
F0.2108741771099884
sg17
I00
sg18
F0.015912853110321853
sg19
S'robert.hermann@enron.com'
p402
sg21
F0.12290785764622973
sg22
F0.9203188877119883
sg23
F0.8393356952427826
sg24
F0.21280397105980606
sg25
F0.3399075500770416
sg26
F0.04157082040083719
sg27
F0.04019787394011444
sg28
F0.7042839164047339
sg29
F0.07944514501891552
sg30
F0.013026025401130533
sg31
F0.0677053499828159
sg32
F0.030427379998172344
sg33
F0.2360375267491972
sg34
F0.012527205940113062
sg35
F0.3365784505246504
sg36
F0.005174849828535431
sg37
F0.9197093302584798
sg38
F1.6286748572672476
ssg1
(g5
S'@\x00\x00\x00\x00\x00\x00\x00'
p403
tp404
Rp405
(dp406
g12
F0.08368672144182347
sg13
S'HICKERSON GARY J'
p407
sg15
F0.1338454477789103
sg16
F0.4317345755965269
sg17
I00
sg18
F0.0
sg19
S'gary.hickerson@enron.com'
p408
sg21
F0.07575757575757576
sg22
F0.837179431909288
sg23
F0.8393356952427826
sg24
F0.16271063598477986
sg25
F0.3399075500770416
sg26
F0.001044859292281973
sg27
F0.00018668445606723034
sg28
F0.7042839164047339
sg29
F0.20554854981084492
sg30
F0.00840031066834443
sg31
F0.0016420361247947454
sg32
F0.02774319424893379
sg33
F0.19023641924015627
sg34
F0.020100957279256797
sg35
F1.0804900062346026
sg36
F0.0905056909602642
sg37
F0.9052520453945634
sg38
F1.5715380405035573
ssg1
(g5
S'A\x00\x00\x00\x00\x00\x00\x00'
p409
tp410
Rp411
(dp412
g12
F0.13363771966050086
sg13
S'HIRKO JOSEPH'
p413
sg15
F0.00035799807104781737
sg16
F0.3404413533670144
sg17
I01
sg18
F0.13342002529051686
sg19
S'joe.hirko@enron.com'
p414
sg21
F0.12290785764622973
sg22
F0.837179431909288
sg23
F0.8393356952427826
sg24
F0.21280397105980606
sg25
F0.3399075500770416
sg26
F0.04157082040083719
sg27
F0.0002754898850133792
sg28
F0.7042839164047339
sg29
F0.14272043809256926
sg30
F0.6262523308275579
sg31
F0.0677053499828159
sg32
F0.07823137121233002
sg33
F0.2553253454580079
sg34
F0.0008781895689194376
sg35
F0.5589748163722422
sg36
F0.895676527809929
sg37
F0.9197093302584798
sg38
F1.6286748572672476
ssg1
(g5
S'B\x00\x00\x00\x00\x00\x00\x00'
p415
tp416
Rp417
(dp418
g12
F0.15193479989398356
sg13
S'HORTON STANLEY C'
p419
sg15
F0.48666223505143846
sg16
F0.23789039433108064
sg17
I00
sg18
F0.13342002529051686
sg19
S'stanley.horton@enron.com'
p420
sg21
F0.08333333333333334
sg22
F0.837179431909288
sg23
F0.8393356952427826
sg24
F0.19423808660989308
sg25
F0.3399075500770416
sg26
F0.07390638060741155
sg27
F0.04525916603744523
sg28
F0.7042839164047339
sg29
F0.14272043809256926
sg30
F0.14726286682009923
sg31
F0.02463054187192118
sg32
F0.13670901012231867
sg33
F0.2553253454580079
sg34
F0.030240659863212158
sg35
F0.5589748163722422
sg36
F0.15145547219904051
sg37
F0.5484808838493967
sg38
F0.3332667852151748
ssg1
(g5
S'C\x00\x00\x00\x00\x00\x00\x00'
p421
tp422
Rp423
(dp424
g12
F0.04386429896633978
sg13
S'HUGHES JAMES A'
p425
sg15
F0.1338454477789103
sg16
F0.23789039433108064
sg17
I00
sg18
F0.13342002529051686
sg19
S'james.hughes@enron.com'
p426
sg21
F0.06628787878787878
sg22
F0.837179431909288
sg23
F0.8393356952427826
sg24
F0.10635984779851422
sg25
F0.3399075500770416
sg26
F0.0015324602953468935
sg27
F0.04525916603744523
sg28
F0.7042839164047339
sg29
F0.14272043809256926
sg30
F0.022199828529329307
sg31
F0.008210180623973728
sg32
F0.022470143389669822
sg33
F0.2553253454580079
sg34
F0.024130416465827257
sg35
F0.5589748163722422
sg36
F0.021700459899609715
sg37
F1.5112034239677743
sg38
F5.357516047171219
ssg1
(g5
S'D\x00\x00\x00\x00\x00\x00\x00'
p427
tp428
Rp429
(dp430
g12
F0.004704479194275113
sg13
S'HUMPHREY GENE E'
p431
sg15
F0.46059069058575686
sg16
F0.02119720928198062
sg17
I00
sg18
F0.13342002529051686
sg19
S'gene.humphrey@enron.com'
p432
sg21
F0.01893939393939394
sg22
F0.837179431909288
sg23
F0.8393356952427826
sg24
F0.02119949266171408
sg25
F0.3399075500770416
sg26
F0.00034828643076065767
sg27
F0.04525916603744523
sg28
F0.7042839164047339
sg29
F0.14272043809256926
sg30
F0.04592321145658793
sg31
F0.027914614121510674
sg32
F0.07823137121233002
sg33
F0.11725713709543105
sg34
F0.029935174072873653
sg35
F1.217157792078913
sg36
F0.06619274686976728
sg37
F4.025821596244132
sg38
F80.14844006568143
ssg1
(g5
S'E\x00\x00\x00\x00\x00\x00\x00'
p433
tp434
Rp435
(dp436
g12
F0.029088258680095416
sg13
S'IZZO LAWRENCE L'
p437
sg15
F0.1338454477789103
sg16
F0.1222360737484417
sg17
I00
sg18
F0.0479249188026266
sg19
S'larry.izzo@enron.com'
p438
sg21
F0.05303030303030303
sg22
F0.837179431909288
sg23
F0.8393356952427826
sg24
F0.07881862656278311
sg25
F0.3399075500770416
sg26
F0.00048760100306492065
sg27
F0.14997760076110112
sg28
F0.7042839164047339
sg29
F0.14272043809256926
sg30
F0.11799166606901858
sg31
F0.008210180623973728
sg32
F0.24592915015132494
sg33
F0.07633998060823871
sg34
F0.01911408637988282
sg35
F1.8695372589231007
sg36
F0.06276814408842346
sg37
F1.8230827638572513
sg38
F16.83790757682383
ssg1
(g5
S'F\x00\x00\x00\x00\x00\x00\x00'
p439
tp440
Rp441
(dp442
g12
F0.013318314338722503
sg13
S'JACKSON CHARLENE R'
p443
sg15
F0.1338454477789103
sg16
F0.04388600922949063
sg17
I00
sg18
F0.13342002529051686
sg19
S'charlene.jackson@enron.com'
p444
sg21
F0.04734848484848485
sg22
F0.837179431909288
sg23
F0.8393356952427826
sg24
F0.02083710817177025
sg25
F0.3399075500770416
sg26
F0.003064920590693787
sg27
F0.00023485174850650022
sg28
F0.7042839164047339
sg29
F0.02269861286254729
sg30
F0.014199650049876451
sg31
F0.031198686371100164
sg32
F0.034503627276204596
sg33
F0.259349952870998
sg34
F0.005320856401158964
sg35
F0.08752117596812403
sg36
F0.005103880093356216
sg37
F3.5551409618573797
sg38
F10.179280489625317
ssg1
(g5
S'G\x00\x00\x00\x00\x00\x00\x00'
p445
tp446
Rp447
(dp448
g12
F0.13363771966050086
sg13
S'JAEDICKE ROBERT'
p449
sg15
F0.1338454477789103
sg16
F0.23789039433108064
sg17
I00
sg18
F0.13342002529051686
sg19
g44
sg21
F0.12290785764622973
sg22
F0.993102145165208
sg23
F0.9954771134084751
sg24
F0.21280397105980606
sg25
F0.3399075500770416
sg26
F0.04157082040083719
sg27
F0.04525916603744523
sg28
F0.8485688247438019
sg29
F0.14272043809256926
sg30
F0.008209891836561721
sg31
F0.0677053499828159
sg32
F0.0007897898831670403
sg33
F0.2553253454580079
sg34
F0.0008072835707383895
sg35
F0.5589748163722422
sg36
F0.012287840315824349
sg37
F0.9197093302584798
sg38
F1.6286748572672476
ssg1
(g5
S'H\x00\x00\x00\x00\x00\x00\x00'
p450
tp451
Rp452
(dp453
g12
F0.3014842300556586
sg13
S'KAMINSKI WINCENTY J'
p454
sg15
F0.1338454477789103
sg16
F0.3649673031078451
sg17
I00
sg18
F0.050085191494206996
sg19
S'vince.kaminski@enron.com'
p455
sg21
F0.07765151515151515
sg22
F0.837179431909288
sg23
F0.8393356952427826
sg24
F0.10527269432868273
sg25
F0.3399075500770416
sg26
F1.0
sg27
F0.0004504944966213878
sg28
F0.7042839164047339
sg29
F0.0416141235813367
sg30
F0.019299394799809622
sg31
F0.28078817733990147
sg32
F0.006352468838501718
sg33
F0.24723505353440509
sg34
F0.01049320901013131
sg35
F0.1683180559812717
sg36
F0.02446830869336156
sg37
F0.25756410256410256
sg38
F0.28078817733990147
ssg1
(g5
S'I\x00\x00\x00\x00\x00\x00\x00'
p456
tp457
Rp458
(dp459
g12
F0.8413066525311422
sg13
S'KEAN STEVEN J'
p460
sg15
F0.1338454477789103
sg16
F0.1828620169280231
sg17
I00
sg18
F0.04546245221091085
sg19
S'steven.kean@enron.com'
p461
sg21
F0.26515151515151514
sg22
F0.837179431909288
sg23
F0.8393356952427826
sg24
F0.6589961949628556
sg25
F0.3399075500770416
sg26
F0.4699777096684314
sg27
F0.00011863246975523582
sg28
F0.7042839164047339
sg29
F0.11727616645649433
sg30
F0.12478981803245556
sg31
F0.6354679802955665
sg32
F0.27829919736491393
sg33
F0.3635829204856763
sg34
F0.016873116936621402
sg35
F0.32255686350677887
sg36
F0.05860012095432831
sg37
F0.31516631225223807
sg38
F1.3521236586813623
ssg1
(g5
S'J\x00\x00\x00\x00\x00\x00\x00'
p462
tp463
Rp464
(dp465
g12
F0.13363771966050086
sg13
S'KISHKILL JOSEPH G'
p466
sg15
F0.1338454477789103
sg16
F0.5082212453251098
sg17
I00
sg18
F0.13342002529051686
sg19
S'joe.kishkill@enron.com'
p467
sg21
F0.12290785764622973
sg22
F0.9856691193197306
sg23
F0.8393356952427826
sg24
F0.21280397105980606
sg25
F0.3399075500770416
sg26
F0.04157082040083719
sg27
F0.04491961998612511
sg28
F0.7042839164047339
sg29
F0.14272043809256926
sg30
F0.020487403751491405
sg31
F0.0677053499828159
sg32
F0.06802023784807819
sg33
F0.15643857790149454
sg34
F0.006805237696595039
sg35
F0.9123097384740786
sg36
F0.0905056909602642
sg37
F0.9197093302584798
sg38
F1.6286748572672476
ssg1
(g5
S'K\x00\x00\x00\x00\x00\x00\x00'
p468
tp469
Rp470
(dp471
g12
F0.5465147097800158
sg13
S'KITCHEN LOUISE'
p472
sg15
F0.1338454477789103
sg16
F0.02460905889814754
sg17
I00
sg18
F0.13342002529051686
sg19
S'louise.kitchen@enron.com'
p473
sg21
F0.4753787878787879
sg22
F0.837179431909288
sg23
F0.8393356952427826
sg24
F0.664431962312013
sg25
F0.3399075500770416
sg26
F0.11953190303705769
sg27
F0.00906616554664037
sg28
F0.7042839164047339
sg29
F0.38209331651954603
sg30
F0.01056095114063855
sg31
F0.3185550082101806
sg32
F0.02944083853919355
sg33
F0.243940974863632
sg34
F0.03351684915490006
sg35
F1.5663351215725199
sg36
F0.0020746052377644845
sg37
F0.8698371322340771
sg38
F2.665020802951837
ssg1
(g5
S'L\x00\x00\x00\x00\x00\x00\x00'
p474
tp475
Rp476
(dp477
g12
F0.15352504638218922
sg13
S'KOENIG MARK E'
p478
sg15
F0.1338454477789103
sg16
F0.5549460884018983
sg17
I01
sg18
F0.04546245221091085
sg19
S'mark.koenig@enron.com'
p479
sg21
F0.10037878787878789
sg22
F0.837179431909288
sg23
F0.8393356952427826
sg24
F0.41112520384127554
sg25
F0.3399075500770416
sg26
F0.0034132070214544447
sg27
F0.014523162627741058
sg28
F0.7042839164047339
sg29
F0.07944514501891552
sg30
F0.03853316376427021
sg31
F0.02463054187192118
sg32
F0.08254726620542521
sg33
F0.2786048735079192
sg34
F0.015327138288278218
sg35
F0.28515346490038096
sg36
F0.019276684729633994
sg37
F0.6538267875125883
sg38
F7.216246104353069
ssg1
(g5
S'M\x00\x00\x00\x00\x00\x00\x00'
p480
tp481
Rp482
(dp483
g12
F0.13363771966050086
sg13
S'KOPPER MICHAEL J'
p484
sg15
F0.1338454477789103
sg16
F0.5160903702731666
sg17
I01
sg18
F0.10508783027340668
sg19
S'michael.kopper@enron.com'
p485
sg21
F0.12290785764622973
sg22
F0.837179431909288
sg23
F0.8393356952427826
sg24
F0.21280397105980606
sg25
F0.3399075500770416
sg26
F0.04157082040083719
sg27
F0.08759883344416315
sg28
F0.7042839164047339
sg29
F0.09205548549810845
sg30
F0.019482662228857927
sg31
F0.0677053499828159
sg32
F0.0646722022340062
sg33
F0.2015050671554519
sg34
F0.02561291128412037
sg35
F0.4568395564320567
sg36
F0.0905056909602642
sg37
F0.9197093302584798
sg38
F1.6286748572672476
ssg1
(g5
S'N\x00\x00\x00\x00\x00\x00\x00'
p486
tp487
Rp488
(dp489
g12
F0.47720646700238534
sg13
S'LAVORATO JOHN J'
p490
sg15
F0.1338454477789103
sg16
F0.2160356931959845
sg17
I00
sg18
F0.3873276741254451
sg19
S'john.lavorato@enron.com'
p491
sg21
F1.0
sg22
F0.837179431909288
sg23
F0.8393356952427826
sg24
F0.7175212900887842
sg25
F0.3399075500770416
sg26
F0.1792281972694344
sg27
F0.0001496178422462291
sg28
F0.7042839164047339
sg29
F1.0
sg30
F0.10469054596783132
sg31
F0.6748768472906403
sg32
F0.06624166606355768
sg33
F0.30502052159696647
sg34
F0.1006725061678224
sg35
F3.27846793640112
sg36
F0.12083178393422839
sg37
F2.0955290197167455
sg38
F3.765461336845873
ssg1
(g5
S'O\x00\x00\x00\x00\x00\x00\x00'
p492
tp493
Rp494
(dp495
g12
F0.279353299761463
sg13
S'LAY KENNETH L'
p496
sg15
F0.03037063705429591
sg16
F0.4360343809461321
sg17
I01
sg18
F0.6955536324238689
sg19
S'kenneth.lay@enron.com'
p497
sg21
F0.23295454545454547
sg22
F0.9146103969313437
sg23
F0.8393356952427826
sg24
F0.4364921181373437
sg25
F1.0
sg26
F0.0016717748676511562
sg27
F0.9999999999999999
sg28
F0.7042839164047339
sg29
F0.8738965952080706
sg30
F1.0000000000000002
sg31
F0.026272577996715927
sg32
F1.0
sg33
F0.9649462855414345
sg34
F0.9999999999999999
sg35
F0.9056427371164234
sg36
F0.9999999999999999
sg37
F0.8339065464895636
sg38
F15.715380405035578
ssg1
(g5
S'P\x00\x00\x00\x00\x00\x00\x00'
p498
tp499
Rp500
(dp501
g12
F0.18320964749536175
sg13
S'LEFF DANIEL P'
p502
sg15
F0.1338454477789103
sg16
F0.23789039433108064
sg17
I00
sg18
F0.25967714896012006
sg19
S'dan.leff@enron.com'
p503
sg21
F0.1268939393939394
sg22
F0.837179431909288
sg23
F0.8393356952427826
sg24
F0.4837832940750136
sg25
F0.3399075500770416
sg26
F0.0035525215937587075
sg27
F0.0002974016593294399
sg28
F0.7042839164047339
sg29
F0.11727616645649433
sg30
F0.0067587886868476135
sg31
F0.022988505747126436
sg32
F0.022273256029471732
sg33
F0.24601519111327977
sg34
F0.025725078528417124
sg35
F0.4767029463741267
sg36
F0.0905056909602642
sg37
F0.6926160337552744
sg38
F6.471038990308767
ssg1
(g5
S'Q\x00\x00\x00\x00\x00\x00\x00'
p504
tp505
Rp506
(dp507
g12
F0.13363771966050086
sg13
S'LEMAISTRE CHARLES'
p508
sg15
F0.1338454477789103
sg16
F0.23789039433108064
sg17
I00
sg18
F0.13342002529051686
sg19
g44
sg21
F0.12290785764622973
sg22
F0.993102145165208
sg23
F0.8393356952427826
sg24
F0.21280397105980606
sg25
F0.3399075500770416
sg26
F0.04157082040083719
sg27
F0.04525916603744523
sg28
F0.8833671210965834
sg29
F0.14272043809256926
sg30
F0.007825386786978661
sg31
F0.0677053499828159
sg32
F0.07823137121233002
sg33
F0.2553253454580079
sg34
F0.000843417336936603
sg35
F0.5589748163722422
sg36
F0.011738254414182112
sg37
F0.9197093302584798
sg38
F1.6286748572672476
ssg1
(g5
S'R\x00\x00\x00\x00\x00\x00\x00'
p509
tp510
Rp511
(dp512
g12
F0.05930294195600317
sg13
S'LEWIS RICHARD'
p513
sg15
F0.1338454477789103
sg16
F0.23789039433108064
sg17
I00
sg18
F0.13342002529051686
sg19
S'richard.lewis@enron.com'
p514
sg21
F0.01893939393939394
sg22
F0.837179431909288
sg23
F0.8393356952427826
sg24
F0.1335386845443015
sg25
F0.3399075500770416
sg26
F0.0009752020061298412
sg27
F0.04525916603744523
sg28
F0.7042839164047339
sg29
F0.14272043809256926
sg30
F0.01674118930883628
sg31
F0.0
sg32
F0.07823137121233002
sg33
F0.2553253454580079
sg34
F0.024130416465827257
sg35
F0.5589748163722422
sg36
F0.02448190855644268
sg37
F0.31936685288640604
sg38
F0.0
ssg1
(g5
S'S\x00\x00\x00\x00\x00\x00\x00'
p515
tp516
Rp517
(dp518
g12
F0.13363771966050086
sg13
S'LINDHOLM TOD A'
p519
sg15
F0.030551972891850156
sg16
F0.25186011416573717
sg17
I00
sg18
F0.020837786293753352
sg19
S'tod.lindholm@enron.com'
p520
sg21
F0.12290785764622973
sg22
F0.837179431909288
sg23
F0.8393356952427826
sg24
F0.21280397105980606
sg25
F0.3399075500770416
sg26
F0.04157082040083719
sg27
F0.0002536746383374774
sg28
F0.7042839164047339
sg29
F0.016393442622950817
sg30
F0.06184455662118022
sg31
F0.0677053499828159
sg32
F0.03275031138754399
sg33
F0.21244511744439276
sg34
F0.008456392449008492
sg35
F0.07716554195340253
sg36
F0.07395640489628853
sg37
F0.9197093302584798
sg38
F1.6286748572672476
ssg1
(g5
S'T\x00\x00\x00\x00\x00\x00\x00'
p521
tp522
Rp523
(dp524
g12
F0.13363771966050086
sg13
S'LOCKHART EUGENE E'
p525
sg15
F0.1338454477789103
sg16
F0.23789039433108064
sg17
I00
sg18
F0.13342002529051686
sg19
g44
sg21
F0.12290785764622973
sg22
F0.837179431909288
sg23
F0.8393356952427826
sg24
F0.21280397105980606
sg25
F0.3399075500770416
sg26
F0.04157082040083719
sg27
F0.04525916603744523
sg28
F0.7042839164047339
sg29
F0.14272043809256926
sg30
F0.07023610810476011
sg31
F0.0677053499828159
sg32
F0.07823137121233002
sg33
F0.2553253454580079
sg34
F0.024130416465827257
sg35
F0.5589748163722422
sg36
F0.0905056909602642
sg37
F0.9197093302584798
sg38
F1.6286748572672476
ssg1
(g5
S'U\x00\x00\x00\x00\x00\x00\x00'
p526
tp527
Rp528
(dp529
g12
F0.13363771966050086
sg13
S'LOWRY CHARLES P'
p530
sg15
F0.1338454477789103
sg16
F0.23789039433108064
sg17
I00
sg18
F0.13342002529051686
sg19
g44
sg21
F0.12290785764622973
sg22
F0.837179431909288
sg23
F0.9528675793050626
sg24
F0.21280397105980606
sg25
F0.3399075500770416
sg26
F0.04157082040083719
sg27
F0.04525916603744523
sg28
F0.7042839164047339
sg29
F0.14272043809256926
sg30
F0.006996700167558793
sg31
F0.0677053499828159
sg32
F0.008230299009439324
sg33
F0.2553253454580079
sg34
F0.024130416465827257
sg35
F0.5589748163722422
sg36
F0.010553784968575144
sg37
F0.9197093302584798
sg38
F1.6286748572672476
ssg1
(g5
S'V\x00\x00\x00\x00\x00\x00\x00'
p531
tp532
Rp533
(dp534
g12
F0.09707129605088788
sg13
S'MARTIN AMANDA K'
p535
sg15
F0.01206864776588484
sg16
F0.035268901865581875
sg17
I00
sg18
F1.0
sg19
S'a..martin@enron.com'
p536
sg21
F0.015151515151515152
sg22
F0.837179431909288
sg23
F0.8393356952427826
sg24
F0.08606631636165972
sg25
F0.3399075500770416
sg26
F0.01518528838116467
sg27
F0.27205852046101214
sg28
F0.7042839164047339
sg29
F0.14272043809256926
sg30
F0.04159443274503029
sg31
F0.0
sg32
F0.07823137121233002
sg33
F0.3142023495180418
sg34
F0.08117899593031629
sg35
F0.4542309703014302
sg36
F0.06000547896839418
sg37
F0.1560864618885097
sg38
F0.0
ssg1
(g5
S'W\x00\x00\x00\x00\x00\x00\x00'
p537
tp538
Rp539
(dp540
g12
F0.09117413199045851
sg13
S'MCCARTY DANNY J'
p541
sg15
F0.1338454477789103
sg16
F0.23789039433108064
sg17
I00
sg18
F0.13342002529051686
sg19
S'danny.mccarty@enron.com'
p542
sg21
F0.04734848484848485
sg22
F0.837179431909288
sg23
F0.8393356952427826
sg24
F0.0916832759557891
sg25
F0.3399075500770416
sg26
F0.014140429088882698
sg27
F0.04525916603744523
sg28
F0.7042839164047339
sg29
F0.14272043809256926
sg30
F0.0148759975289968
sg31
F0.003284072249589491
sg32
F0.004215833627193377
sg33
F0.2553253454580079
sg34
F0.024130416465827257
sg35
F0.5589748163722422
sg36
F0.01906229031420955
sg37
F0.5193192829457365
sg38
F0.23224700105963905
ssg1
(g5
S'X\x00\x00\x00\x00\x00\x00\x00'
p543
tp544
Rp545
(dp546
g12
F0.11178107606679034
sg13
S'MCCLELLAN GEORGE'
p547
sg15
F0.1338454477789103
sg16
F1.0
sg17
I00
sg18
F0.13342002529051686
sg19
S'george.mcclellan@enron.com'
p548
sg21
F0.09848484848484848
sg22
F0.9645596912619846
sg23
F0.8393356952427826
sg24
F0.2658090233737996
sg25
F0.3399075500770416
sg26
F0.002577319587628866
sg27
F0.004979378317594662
sg28
F0.7042839164047339
sg29
F0.1046658259773014
sg30
F0.01872532664184797
sg31
F0.0
sg32
F0.02774319424893379
sg33
F0.2367127273512961
sg34
F0.01273290382561663
sg35
F0.442163913822728
sg36
F0.01447240932873726
sg37
F0.8810511756569848
sg38
F0.0
ssg1
(g5
S'Y\x00\x00\x00\x00\x00\x00\x00'
p549
tp550
Rp551
(dp552
g12
F0.21680360455870656
sg13
S'MCCONNELL MICHAEL S'
p553
sg15
F0.1338454477789103
sg16
F0.3552522800341185
sg17
I00
sg18
F0.09558290622671121
sg19
S'mike.mcconnell@enron.com'
p554
sg21
F0.17424242424242425
sg22
F0.837179431909288
sg23
F0.8393356952427826
sg24
F0.39626743975357853
sg25
F0.3399075500770416
sg26
F0.19016439119531905
sg27
F5.1931870405465315e-05
sg28
F0.7042839164047339
sg29
F0.12988650693568726
sg30
F0.0625998547715137
sg31
F0.3185550082101806
sg32
F0.09815914391746373
sg33
F0.3282024089356948
sg34
F0.02028991119079251
sg35
F0.395751229727068
sg36
F0.04697943109530356
sg37
F0.8036878565607174
sg38
F1.6751559332840118
ssg1
(g5
S'Z\x00\x00\x00\x00\x00\x00\x00'
p555
tp556
Rp557
(dp558
g12
F0.0554598462761728
sg13
S'MCDONALD REBECCA'
p559
sg15
F0.1338454477789103
sg16
F0.23789039433108064
sg17
I00
sg18
F0.13342002529051686
sg19
S'rebecca.mcdonald@enron.com'
p560
sg21
F0.10227272727272728
sg22
F0.837179431909288
sg23
F0.8393356952427826
sg24
F0.13009603188983512
sg25
F0.3399075500770416
sg26
F6.965728615213149e-05
sg27
F0.04525916603744523
sg28
F0.7042839164047339
sg29
F0.14272043809256926
sg30
F0.03387377020322209
sg31
F0.0016420361247947454
sg32
F0.061211940824621294
sg33
F0.2553253454580079
sg34
F0.024130416465827257
sg35
F0.5589748163722422
sg36
F0.021768459215015322
sg37
F1.8440860215053767
sg38
F23.573070607553372
ssg1
(g5
S'[\x00\x00\x00\x00\x00\x00\x00'
p561
tp562
Rp563
(dp564
g12
F0.15226610124569306
sg13
S'MCMAHON JEFFREY'
p565
sg15
F0.1338454477789103
sg16
F0.5990857992695142
sg17
I00
sg18
F0.12324921087795601
sg19
S'jeffrey.mcmahon@enron.com'
p566
sg21
F0.10984848484848485
sg22
F0.837179431909288
sg23
F0.8393356952427826
sg24
F0.4033339373074832
sg25
F0.3399075500770416
sg26
F0.0025076623014767345
sg27
F0.028702590328876426
sg28
F0.7042839164047339
sg29
F0.31904161412358134
sg30
F0.03329287663239427
sg31
F0.04269293924466338
sg32
F0.03573444484621535
sg33
F0.3330728559455014
sg34
F0.03958707081315314
sg35
F0.9578733554192242
sg36
F0.0318665177224417
sg37
F0.7214244270380041
sg38
F17.02499543878854
ssg1
(g5
S'\\\x00\x00\x00\x00\x00\x00\x00'
p567
tp568
Rp569
(dp570
g12
F0.13363771966050086
sg13
S'MENDELSOHN JOHN'
p571
sg15
F0.1338454477789103
sg16
F0.0
sg17
I00
sg18
F0.13342002529051686
sg19
g44
sg21
F0.12290785764622973
sg22
F0.9706249627164195
sg23
F0.8393356952427826
sg24
F0.21280397105980606
sg25
F0.3399075500770416
sg26
F0.04157082040083719
sg27
F0.04525916603744523
sg28
F0.802071902840032
sg29
F0.14272043809256926
sg30
F0.07023610810476011
sg31
F0.0677053499828159
sg32
F0.07823137121233002
sg33
F0.2553253454580079
sg34
F0.0
sg35
F0.5589748163722422
sg36
F0.0905056909602642
sg37
F0.9197093302584798
sg38
F1.6286748572672476
ssg1
(g5
S']\x00\x00\x00\x00\x00\x00\x00'
p572
tp573
Rp574
(dp575
g12
F0.04969520275642724
sg13
S'METTS MARK'
p576
sg15
F0.1338454477789103
sg16
F0.4118321195022199
sg17
I00
sg18
F0.13342002529051686
sg19
S'mark.metts@enron.com'
p577
sg21
F0.07196969696969698
sg22
F0.837179431909288
sg23
F0.8393356952427826
sg24
F0.12683457148034064
sg25
F0.3399075500770416
sg26
F0.0011841738645862357
sg27
F0.0001677650385960943
sg28
F0.7042839164047339
sg29
F0.06683480453972258
sg30
F0.011333526753988486
sg31
F0.0016420361247947454
sg32
F0.03751736173109885
sg33
F0.32887760953779366
sg34
F0.010251860171981084
sg35
F0.20322090224887177
sg36
F0.0905056909602642
sg37
F1.4482222222222225
sg38
F1.3866512122090215
ssg1
(g5
S'^\x00\x00\x00\x00\x00\x00\x00'
p578
tp579
Rp580
(dp581
g12
F0.13363771966050086
sg13
S'MEYER JEROME J'
p582
sg15
F0.1338454477789103
sg16
F0.008761454847669662
sg17
I00
sg18
F0.13342002529051686
sg19
g44
sg21
F0.12290785764622973
sg22
F0.9892928692672838
sg23
F0.8393356952427826
sg24
F0.21280397105980606
sg25
F0.3399075500770416
sg26
F0.04157082040083719
sg27
F0.04525916603744523
sg28
F0.19385496680119774
sg29
F0.14272043809256926
sg30
F0.07023610810476011
sg31
F0.0677053499828159
sg32
F0.07823137121233002
sg33
F0.2553253454580079
sg34
F1.934151087520626e-05
sg35
F0.5589748163722422
sg36
F0.0905056909602642
sg37
F0.9197093302584798
sg38
F1.6286748572672476
ssg1
(g5
S'_\x00\x00\x00\x00\x00\x00\x00'
p583
tp584
Rp585
(dp586
g12
F0.011595547309833023
sg13
S'MEYER ROCKFORD G'
p587
sg15
F0.286689155010828
sg16
F0.23789039433108064
sg17
I00
sg18
F0.13342002529051686
sg19
S'rockford.meyer@enron.com'
p588
sg21
F0.0
sg22
F0.837179431909288
sg23
F0.8393356952427826
sg24
F0.0036238448994383035
sg25
F0.3399075500770416
sg26
F0.0011145165784341043
sg27
F0.04525916603744523
sg28
F0.7042839164047339
sg29
F0.14272043809256926
sg30
F0.018888566068366596
sg31
F0.0
sg32
F0.029188483257174134
sg33
F0.2553253454580079
sg34
F0.01784555171080395
sg35
F0.5589748163722422
sg36
F0.014085788809968589
sg37
F0.0
sg38
F0.0
ssg1
(g5
S'`\x00\x00\x00\x00\x00\x00\x00'
p589
tp590
Rp591
(dp592
g12
F0.04075006626027034
sg13
S'MORAN MICHAEL P'
p593
sg15
F0.1338454477789103
sg16
F0.23789039433108064
sg17
I00
sg18
F0.13342002529051686
sg19
S'michael.moran@enron.com'
p594
sg21
F0.0
sg22
F0.837179431909288
sg23
F0.8393356952427826
sg24
F0.022649030621489402
sg25
F0.3399075500770416
sg26
F0.00048760100306492065
sg27
F0.04525916603744523
sg28
F0.7042839164047339
sg29
F0.14272043809256926
sg30
F0.003918866826619029
sg31
F0.0
sg32
F0.008767733610586945
sg33
F0.2553253454580079
sg34
F0.024130416465827257
sg35
F0.5589748163722422
sg36
F0.0014483999790206824
sg37
F0.0
sg38
F0.0
ssg1
(g5
S'a\x00\x00\x00\x00\x00\x00\x00'
p595
tp596
Rp597
(dp598
g12
F0.13363771966050086
sg13
S'MORDAUNT KRISTINA M'
p599
sg15
F0.1338454477789103
sg16
F0.15252717450735953
sg17
I00
sg18
F0.13342002529051686
sg19
S'kristina.mordaunt@enron.com'
p600
sg21
F0.12290785764622973
sg22
F0.837179431909288
sg23
F0.8393356952427826
sg24
F0.21280397105980606
sg25
F0.3399075500770416
sg26
F0.04157082040083719
sg27
F0.00013600744498383017
sg28
F0.7042839164047339
sg29
F0.032156368221942
sg30
F0.003661518200014344
sg31
F0.0677053499828159
sg32
F0.011952420607887688
sg33
F0.24002571163892794
sg34
F0.006067749652869126
sg35
F0.13397051508512975
sg36
F0.0905056909602642
sg37
F0.9197093302584798
sg38
F1.6286748572672476
ssg1
(g5
S'b\x00\x00\x00\x00\x00\x00\x00'
p601
tp602
Rp603
(dp604
g12
F0.005234561357010337
sg13
S'MULLER MARK S'
p605
sg15
F0.1300762155771535
sg16
F0.23789039433108064
sg17
I00
sg18
F0.32629100720990517
sg19
S's..muller@enron.com'
p606
sg21
F0.022727272727272728
sg22
F0.7950175150768377
sg23
F0.8393356952427826
sg24
F0.020293531436854504
sg25
F0.3399075500770416
sg26
F0.00027862914460852607
sg27
F9.12186199501203e-05
sg28
F0.7042839164047339
sg29
F0.12988650693568726
sg30
F0.0282806397877154
sg31
F0.0
sg32
F0.022273256029471732
sg33
F0.22612648217785505
sg34
F0.03091862665230264
sg35
F0.5743975923772066
sg36
F0.030476419511918682
sg37
F4.341772151898734
sg38
F0.0
ssg1
(g5
S'c\x00\x00\x00\x00\x00\x00\x00'
p607
tp608
Rp609
(dp610
g12
F0.1414656771799629
sg13
S'MURRAY JULIA H'
p611
sg15
F0.1338454477789103
sg16
F0.2512171117380749
sg17
I00
sg18
F0.01098791992689035
sg19
S'julia.murray@enron.com'
p612
sg21
F0.020833333333333336
sg22
F0.837179431909288
sg23
F0.8393356952427826
sg24
F0.07120855227396268
sg25
F0.3399075500770416
sg26
F0.00229869044302034
sg27
F3.166106597210525e-05
sg28
F0.7042839164047339
sg29
F0.0416141235813367
sg30
F0.011586148527503766
sg31
F0.003284072249589491
sg32
F0.011169827297196854
sg33
F0.20598749888591902
sg34
F0.007841336265685344
sg35
F0.2020225683908305
sg36
F0.011377144559351477
sg37
F0.14726775956284155
sg38
F1.4286709459123252
ssg1
(g5
S'd\x00\x00\x00\x00\x00\x00\x00'
p613
tp614
Rp615
(dp616
g12
F0.13363771966050086
sg13
S'NOLES JAMES L'
p617
sg15
F0.11940123654216239
sg16
F0.23789039433108064
sg17
I00
sg18
F0.13342002529051686
sg19
g44
sg21
F0.12290785764622973
sg22
F0.837179431909288
sg23
F0.9758572022876872
sg24
F0.21280397105980606
sg25
F0.3399075500770416
sg26
F0.04157082040083719
sg27
F0.04525916603744523
sg28
F0.7042839164047339
sg29
F0.14272043809256926
sg30
F0.00692538988388241
sg31
F0.0677053499828159
sg32
F0.029248024710585765
sg33
F0.2553253454580079
sg34
F0.007476396814608624
sg35
F0.5589748163722422
sg36
F0.0905056909602642
sg37
F0.9197093302584798
sg38
F1.6286748572672476
ssg1
(g5
S'e\x00\x00\x00\x00\x00\x00\x00'
p618
tp619
Rp620
(dp621
g12
F0.07467532467532466
sg13
S'OLSON CINDY K'
p622
sg15
F0.010866908375082899
sg16
F0.27838505784834766
sg17
I00
sg18
F0.006062986743458851
sg19
S'cindy.olson@enron.com'
p623
sg21
F0.03787878787878788
sg22
F0.837179431909288
sg23
F0.8393356952427826
sg24
F0.15473817720601557
sg25
F0.3399075500770416
sg26
F0.0027862914460852605
sg27
F9.363181095409173e-05
sg28
F0.7042839164047339
sg29
F0.08575031525851198
sg30
F0.05252440441651074
sg31
F0.02463054187192118
sg32
F0.0636332480018988
sg33
F0.295828790733727
sg34
F0.012759883446877401
sg35
F0.2898646715413684
sg36
F0.04738783469241201
sg37
F0.5072463768115943
sg38
F8.83990147783251
ssg1
(g5
S'f\x00\x00\x00\x00\x00\x00\x00'
p624
tp625
Rp626
(dp627
g12
F0.13363771966050086
sg13
S'OVERDYKE JR JERE C'
p628
sg15
F0.1338454477789103
sg16
F0.08173566913807055
sg17
I00
sg18
F0.013122582965916901
sg19
S'jere.overdyke@enron.com'
p629
sg21
F0.12290785764622973
sg22
F0.837179431909288
sg23
F0.8393356952427826
sg24
F0.21280397105980606
sg25
F0.3399075500770416
sg26
F0.04157082040083719
sg27
F1.67958093876412e-05
sg28
F0.7042839164047339
sg29
F0.14272043809256926
sg30
F0.14830085930929268
sg31
F0.0677053499828159
sg32
F0.13636527194829007
sg33
F0.08504286623555858
sg34
F0.002410581843921925
sg35
F1.6782176378821794
sg36
F0.153086552994138
sg37
F0.9197093302584798
sg38
F1.6286748572672476
ssg1
(g5
S'g\x00\x00\x00\x00\x00\x00\x00'
p630
tp631
Rp632
(dp633
g12
F0.13363771966050086
sg13
S'PAI LOU L'
p634
sg15
F0.1338454477789103
sg16
F0.13953152680270325
sg17
I00
sg18
F0.13342002529051686
sg19
S'lou.pai@enron.com'
p635
sg21
F0.12290785764622973
sg22
F0.837179431909288
sg23
F0.8393356952427826
sg24
F0.21280397105980606
sg25
F0.3399075500770416
sg26
F0.04157082040083719
sg27
F0.17659297392682258
sg28
F0.7042839164047339
sg29
F0.11727616645649433
sg30
F0.48468850038140815
sg31
F0.0677053499828159
sg32
F0.5717407300338905
sg33
F0.23533171705313652
sg34
F0.03015880365368189
sg35
F0.49834407331509023
sg36
F0.4471461415368329
sg37
F0.9197093302584798
sg38
F1.6286748572672476
ssg1
(g5
S'h\x00\x00\x00\x00\x00\x00\x00'
p636
tp637
Rp638
(dp639
g12
F0.13363771966050086
sg13
S'PEREIRA PAULO V. FERRAZ'
p640
sg15
F0.1338454477789103
sg16
F0.12157557465608118
sg17
I00
sg18
F0.13342002529051686
sg19
g44
sg21
F0.12290785764622973
sg22
F0.9713385240640001
sg23
F0.8393356952427826
sg24
F0.21280397105980606
sg25
F0.3399075500770416
sg26
F0.04157082040083719
sg27
F0.04525916603744523
sg28
F0.778823441888147
sg29
F0.14272043809256926
sg30
F0.07023610810476011
sg31
F0.0677053499828159
sg32
F0.07823137121233002
sg33
F0.2553253454580079
sg34
F0.00026838639703718564
sg35
F0.5589748163722422
sg36
F0.0905056909602642
sg37
F0.9197093302584798
sg38
F1.6286748572672476
ssg1
(g5
S'i\x00\x00\x00\x00\x00\x00\x00'
p641
tp642
Rp643
(dp644
g12
F0.055724887357540415
sg13
S'PICKERING MARK R'
p645
sg15
F0.1338454477789103
sg16
F0.1378081053299215
sg17
I00
sg18
F0.13342002529051686
sg19
S'mark.pickering@enron.com'
p646
sg21
F0.013257575757575758
sg22
F0.837179431909288
sg23
F0.8393356952427826
sg24
F0.13154556984961044
sg25
F0.0
sg26
F0.003831150738367233
sg27
F0.04525916603744523
sg28
F0.7042839164047339
sg29
F0.029003783102143764
sg30
F0.0
sg31
F0.0
sg32
F0.07823137121233002
sg33
F0.589279074813127
sg34
F0.013388825347943207
sg35
F0.049219095572571425
sg36
F0.0005531678784280573
sg37
F0.23791121680539043
sg38
F0.0
ssg1
(g5
S'j\x00\x00\x00\x00\x00\x00\x00'
p647
tp648
Rp649
(dp650
g12
F0.07825337927378742
sg13
S'PIPER GREGORY F'
p651
sg15
F0.17480447587945155
sg16
F0.18769109638475165
sg17
I00
sg18
F0.13342002529051686
sg19
S'greg.piper@enron.com'
p652
sg21
F0.11553030303030304
sg22
F0.9907237024814524
sg23
F0.8533866245728083
sg24
F0.13408226127921724
sg25
F0.3399075500770416
sg26
F0.014628030091947618
sg27
F7.490544876327338e-05
sg28
F0.7042839164047339
sg29
F0.0416141235813367
sg30
F0.017348610305191713
sg31
F0.07881773399014778
sg32
F0.025601738691910254
sg33
F0.17700518824142655
sg34
F0.016777587447311157
sg35
F0.23510115152431033
sg36
F0.025350115661447983
sg37
F1.4763618402483776
sg38
F5.388130424583626
ssg1
(g5
S'k\x00\x00\x00\x00\x00\x00\x00'
p653
tp654
Rp655
(dp656
g12
F6.626027034190279e-05
sg13
S'PIRO JIM'
p657
sg15
F0.1338454477789103
sg16
F0.23789039433108064
sg17
I00
sg18
F0.13342002529051686
sg19
S'jim.piro@enron.com'
p658
sg21
F0.0
sg22
F0.837179431909288
sg23
F0.8393356952427826
sg24
F0.0001811922449719152
sg25
F0.3399075500770416
sg26
F0.00027862914460852607
sg27
F0.04525916603744523
sg28
F0.7042839164047339
sg29
F0.14272043809256926
sg30
F0.00037704803134718575
sg31
F0.0016420361247947454
sg32
F0.0010077917154415498
sg33
F0.2553253454580079
sg34
F0.024130416465827257
sg35
F0.5589748163722422
sg36
F0.0905056909602642
sg37
F0.0
sg38
F5.893267651888341
ssg1
(g5
S'l\x00\x00\x00\x00\x00\x00\x00'
p659
tp660
Rp661
(dp662
g12
F0.03949112112377418
sg13
S'POWERS WILLIAM'
p663
sg15
F0.1338454477789103
sg16
F0.23789039433108064
sg17
I00
sg18
F0.13342002529051686
sg19
S'ken.powers@enron.com'
p664
sg21
F0.0
sg22
F0.9952428292079497
sg23
F0.8393356952427826
sg24
F0.001811922449719152
sg25
F0.3399075500770416
sg26
F0.0009752020061298412
sg27
F0.04525916603744523
sg28
F0.0
sg29
F0.14272043809256926
sg30
F0.07023610810476011
sg31
F0.0
sg32
F0.07823137121233002
sg33
F0.2553253454580079
sg34
F0.024130416465827257
sg35
F0.5589748163722422
sg36
F0.0905056909602642
sg37
F0.0
sg38
F0.0
ssg1
(g5
S'm\x00\x00\x00\x00\x00\x00\x00'
p665
tp666
Rp667
(dp668
g12
F0.13363771966050086
sg13
S'PRENTICE JAMES'
p669
sg15
F0.08667775141691993
sg16
F0.23789039433108064
sg17
I00
sg18
F0.13342002529051686
sg19
S'james.prentice@enron.com'
p670
sg21
F0.12290785764622973
sg22
F0.837179431909288
sg23
F0.8393356952427826
sg24
F0.21280397105980606
sg25
F0.3399075500770416
sg26
F0.04157082040083719
sg27
F0.04525916603744523
sg28
F0.7042839164047339
sg29
F0.14272043809256926
sg30
F0.021724005567906948
sg31
F0.0677053499828159
sg32
F0.011972720373646044
sg33
F0.2553253454580079
sg34
F0.005448068115722103
sg35
F0.5589748163722422
sg36
F0.025523128052379336
sg37
F0.9197093302584798
sg38
F1.6286748572672476
ssg1
(g5
S'n\x00\x00\x00\x00\x00\x00\x00'
p671
tp672
Rp673
(dp674
g12
F0.10694407633183142
sg13
S'REDMOND BRIAN L'
p675
sg15
F0.1338454477789103
sg16
F0.06360475034446558
sg17
I00
sg18
F0.13342002529051686
sg19
S'brian.redmond@enron.com'
p676
sg21
F0.38636363636363635
sg22
F0.837179431909288
sg23
F0.8393356952427826
sg24
F0.19224497191520204
sg25
F0.3399075500770416
sg26
F0.014558372805795488
sg27
F0.04525916603744523
sg28
F0.7042839164047339
sg29
F0.14272043809256926
sg30
F0.1601736140540752
sg31
F0.08045977011494253
sg32
F0.023682494283137876
sg33
F0.08675247416007296
sg34
F0.0010755251237101093
sg35
F1.645145449445349
sg36
F0.21839096962102192
sg37
F3.61276332094176
sg38
F5.52670076445031
ssg1
(g5
S'o\x00\x00\x00\x00\x00\x00\x00'
p677
tp678
Rp679
(dp680
g12
F0.13363771966050086
sg13
S'REYNOLDS LAWRENCE'
p681
sg15
F0.006761770354986713
sg16
F0.036134986768147324
sg17
I00
sg18
F0.017144086406179725
sg19
g44
sg21
F0.12290785764622973
sg22
F0.943152850834567
sg23
F0.9580860254351622
sg24
F0.21280397105980606
sg25
F0.3399075500770416
sg26
F0.04157082040083719
sg27
F0.01950340969409715
sg28
F0.7042839164047339
sg29
F0.0037831021437578806
sg30
F0.08543161466041635
sg31
F0.0677053499828159
sg32
F0.011475342166469758
sg33
F0.06835010681673526
sg34
F0.0038077283868634348
sg35
F0.055348884148804324
sg36
F0.12088062112991799
sg37
F0.9197093302584798
sg38
F1.6286748572672476
ssg1
(g5
S'p\x00\x00\x00\x00\x00\x00\x00'
p682
tp683
Rp684
(dp685
g12
F0.05618870924993374
sg13
S'RICE KENNETH D'
p686
sg15
F0.1338454477789103
sg16
F0.20471972530236424
sg17
I01
sg18
F0.304910099284683
sg19
S'ken.rice@enron.com'
p687
sg21
F0.07954545454545454
sg22
F0.0
sg23
F0.8393356952427826
sg24
F0.1561877151657909
sg25
F0.3399075500770416
sg26
F0.00041794371691278906
sg27
F0.016876603022454164
sg28
F0.7042839164047339
sg29
F0.21185372005044137
sg30
F0.45870321637903494
sg31
F0.006568144499178982
sg32
F0.1843886790039455
sg33
F0.37825547970301976
sg34
F0.004875470556122512
sg35
F0.5600810336357173
sg36
F0.5761557823254257
sg37
F1.415683962264151
sg38
F15.715380405035578
ssg1
(g5
S'q\x00\x00\x00\x00\x00\x00\x00'
p688
tp689
Rp690
(dp691
g12
F0.08421680360455869
sg13
S'RIEKER PAULA H'
p692
sg15
F0.03220378035369524
sg16
F0.14488550620038057
sg17
I01
sg18
F0.13342002529051686
sg19
S'paula.rieker@enron.com'
p693
sg21
F0.06628787878787878
sg22
F0.9716953047377904
sg23
F0.8393356952427826
sg24
F0.22757745968472548
sg25
F0.3399075500770416
sg26
F0.004876010030649206
sg27
F0.00018803584302945435
sg28
F0.7042839164047339
sg29
F0.07944514501891552
sg30
F0.038509366503889066
sg31
F0.07881773399014778
sg32
F0.017053772110620282
sg33
F0.223918126075257
sg34
F0.010611778362121654
sg35
F0.3547955067836477
sg36
F0.04733553200698654
sg37
F0.7871098872279046
sg38
F16.16439127375088
ssg1
(g5
S'r\x00\x00\x00\x00\x00\x00\x00'
p694
tp695
Rp696
(dp697
g12
F0.13363771966050086
sg13
S'SAVAGE FRANK'
p698
sg15
F0.1338454477789103
sg16
F0.23789039433108064
sg17
I00
sg18
F0.13342002529051686
sg19
g44
sg21
F0.12290785764622973
sg22
F0.9656203288490284
sg23
F0.8393356952427826
sg24
F0.21280397105980606
sg25
F0.3399075500770416
sg26
F0.04157082040083719
sg27
F0.04525916603744523
sg28
F1.0
sg29
F0.14272043809256926
sg30
F0.07023610810476011
sg31
F0.0677053499828159
sg32
F0.07823137121233002
sg33
F0.2553253454580079
sg34
F3.478188825386568e-05
sg35
F0.5589748163722422
sg36
F0.0905056909602642
sg37
F0.9197093302584798
sg38
F1.6286748572672476
ssg1
(g5
S's\x00\x00\x00\x00\x00\x00\x00'
p699
tp700
Rp701
(dp702
g12
F0.13363771966050086
sg13
S'SCRIMSHAW MATTHEW'
p703
sg15
F0.1338454477789103
sg16
F0.23789039433108064
sg17
I00
sg18
F0.13342002529051686
sg19
S'matthew.scrimshaw@enron.com'
p704
sg21
F0.12290785764622973
sg22
F0.837179431909288
sg23
F0.8393356952427826
sg24
F0.21280397105980606
sg25
F0.3399075500770416
sg26
F0.04157082040083719
sg27
F0.04525916603744523
sg28
F0.7042839164047339
sg29
F0.14272043809256926
sg30
F0.01488875188259149
sg31
F0.0677053499828159
sg32
F0.07823137121233002
sg33
F0.2553253454580079
sg34
F0.024130416465827257
sg35
F0.5589748163722422
sg36
F0.02183415791118451
sg37
F0.9197093302584798
sg38
F1.6286748572672476
ssg1
(g5
S't\x00\x00\x00\x00\x00\x00\x00'
p705
tp706
Rp707
(dp708
g12
F0.20964749536178107
sg13
S'SHANKMAN JEFFREY A'
p709
sg15
F0.1338454477789103
sg16
F0.7822365111650591
sg17
I00
sg18
F0.09558290622671121
sg19
S'jeffrey.shankman@enron.com'
p710
sg21
F0.17803030303030304
sg22
F0.837179431909288
sg23
F0.8393356952427826
sg24
F0.31310019931146943
sg25
F0.3399075500770416
sg26
F0.18591529674003904
sg27
F0.00011477136414888152
sg28
F0.7042839164047339
sg29
F0.24337957124842372
sg30
F0.04162966002516642
sg31
F0.13628899835796388
sg32
F0.04057760233831577
sg33
F0.27335091255612043
sg34
F0.029341100966500992
sg35
F0.8903558029953771
sg36
F0.04170513044787727
sg37
F0.849188790560472
sg38
F0.7330703860722851
ssg1
(g5
S'u\x00\x00\x00\x00\x00\x00\x00'
p711
tp712
Rp713
(dp714
g12
F1.0
sg13
S'SHAPIRO RICHARD S'
p715
sg15
F0.1338454477789103
sg16
F0.6019683747785578
sg17
I00
sg18
F0.13342002529051686
sg19
S'richard.shapiro@enron.com'
p716
sg21
F0.14015151515151517
sg22
F0.837179431909288
sg23
F0.8393356952427826
sg24
F0.8198949084979162
sg25
F0.3399075500770416
sg26
F0.08379771524101422
sg27
F6.785893103167679e-05
sg28
F0.7042839164047339
sg29
F0.07313997477931905
sg30
F0.019522779357017583
sg31
F0.10673234811165845
sg32
F0.02353849494142058
sg33
F0.24181094203087738
sg34
F0.010210540988239192
sg35
F0.3024675978888484
sg36
F0.017415804106756774
sg37
F0.14015151515151517
sg38
F1.2736904318295665
ssg1
(g5
S'v\x00\x00\x00\x00\x00\x00\x00'
p717
tp718
Rp719
(dp720
g12
F0.2040153723827193
sg13
S'SHARP VICTORIA T'
p721
sg15
F0.02796497725746371
sg16
F0.508229993657459
sg17
I00
sg18
F0.06952725172377586
sg19
S'vicki.sharp@enron.com'
p722
sg21
F0.045454545454545456
sg22
F0.837179431909288
sg23
F0.8393356952427826
sg24
F0.4484508063054901
sg25
F0.3399075500770416
sg26
F0.008637503482864309
sg27
F0.00023156980874109906
sg28
F0.7042839164047339
sg29
F0.06683480453972258
sg30
F0.009480967081543107
sg31
F0.009852216748768473
sg32
F0.012261533763398695
sg33
F0.22296834389497122
sg34
F0.01522178837132939
sg35
F0.2997501949030261
sg36
F0.007899860509669867
sg37
F0.22279961026307246
sg38
F1.140632448752582
ssg1
(g5
S'w\x00\x00\x00\x00\x00\x00\x00'
p723
tp724
Rp725
(dp726
g12
F0.011131725417439703
sg13
S'SHELBY REX'
p727
sg15
F0.1338454477789103
sg16
F0.09945104214509108
sg17
I01
sg18
F0.13342002529051686
sg19
S'rex.shelby@enron.com'
p728
sg21
F0.02462121212121212
sg22
F0.9990483945868666
sg23
F0.8393356952427826
sg24
F0.016126109802500455
sg25
F0.3399075500770416
sg26
F0.0018807467261075508
sg27
F0.15186905987001395
sg28
F0.7042839164047339
sg29
F0.016393442622950817
sg30
F0.050219105940187386
sg31
F0.022988505747126436
sg32
F0.05680947155839876
sg33
F0.19028683421844633
sg34
F0.01934862754695615
sg35
F0.08615121845020239
sg36
F0.04701979385810963
sg37
F2.2118055555555554
sg38
F12.223073648361005
ssg1
(g5
S'x\x00\x00\x00\x00\x00\x00\x00'
p729
tp730
Rp731
(dp732
g12
F0.036840710310098064
sg13
S'SHERRICK JEFFREY B'
p733
sg15
F0.1338454477789103
sg16
F0.23789039433108064
sg17
I00
sg18
F0.13342002529051686
sg19
S'jeffrey.sherrick@enron.com'
p734
sg21
F0.07386363636363637
sg22
F0.837179431909288
sg23
F0.8393356952427826
sg24
F0.10527269432868273
sg25
F0.3399075500770416
sg26
F0.0009055447199777098
sg27
F0.04525916603744523
sg28
F0.7042839164047339
sg29
F0.14272043809256926
sg30
F0.0367486341024521
sg31
F0.029556650246305417
sg32
F0.02536038194518466
sg33
F0.2553253454580079
sg34
F0.024130416465827257
sg35
F0.5589748163722422
sg36
F0.04125581077447551
sg37
F2.004946043165468
sg38
F32.63963622584311
ssg1
(g5
S'y\x00\x00\x00\x00\x00\x00\x00'
p735
tp736
Rp737
(dp738
g12
F0.20739464617015635
sg13
S'SHERRIFF JOHN R'
p739
sg15
F0.1338454477789103
sg16
F0.23789039433108064
sg17
I00
sg18
F0.09558290622671121
sg19
S'john.sherriff@enron.com'
p740
sg21
F0.05303030303030303
sg22
F0.837179431909288
sg23
F0.8393356952427826
sg24
F0.3806849066859938
sg25
F0.3399075500770416
sg26
F0.005572582892170521
sg27
F0.17878695065999325
sg28
F0.7042839164047339
sg29
F0.18032786885245902
sg30
F0.06316428585399565
sg31
F0.03776683087027914
sg32
F0.08560961147063045
sg33
F0.3855872579743442
sg34
F0.04186225242467759
sg35
F0.46767071557239454
sg36
F0.05316920346825048
sg37
F0.2556975505857295
sg38
F6.777257799671592
ssg1
(g5
S'z\x00\x00\x00\x00\x00\x00\x00'
p741
tp742
Rp743
(dp744
g12
F0.23654916512059368
sg13
S'SKILLING JEFFREY K'
p745
sg15
F0.1338454477789103
sg16
F0.12767316230343592
sg17
I01
sg18
F0.3645981224972721
sg19
S'jeff.skilling@enron.com'
p746
sg21
F0.16666666666666669
sg22
F0.837179431909288
sg23
F0.8393356952427826
sg24
F0.36963217974270696
sg25
F0.3399075500770416
sg26
F0.006687099470604626
sg27
F0.0021351914003139272
sg28
F0.7042839164047339
sg29
F0.6973518284993695
sg30
F0.5310553025511967
sg31
F0.04926108374384236
sg32
F0.4624281208377843
sg33
F1.0
sg34
F0.08384122985357857
sg35
F0.6973518284993695
sg36
F0.5603084472244209
sg37
F0.704575163398693
sg38
F7.366584564860426
ssg1
(g5
S'{\x00\x00\x00\x00\x00\x00\x00'
p747
tp748
Rp749
(dp750
g12
F0.13363771966050086
sg13
S'STABLER FRANK'
p751
sg15
F0.1338454477789103
sg16
F0.07158760361306125
sg17
I00
sg18
F0.13342002529051686
sg19
S'frank.stabler@enron.com'
p752
sg21
F0.12290785764622973
sg22
F0.837179431909288
sg23
F0.8393356952427826
sg24
F0.21280397105980606
sg25
F0.3399075500770416
sg26
F0.04157082040083719
sg27
F0.03437050030372422
sg28
F0.7042839164047339
sg29
F0.05422446406052964
sg30
F0.009839515187867963
sg31
F0.0677053499828159
sg32
F0.0325389629902003
sg33
F0.2151864318889142
sg34
F0.010737184354001986
sg35
F0.2519883042092633
sg36
F0.0905056909602642
sg37
F0.9197093302584798
sg38
F1.6286748572672476
ssg1
(g5
S'|\x00\x00\x00\x00\x00\x00\x00'
p753
tp754
Rp755
(dp756
g12
F0.13363771966050086
sg13
S'SULLIVAN-SHAKLOVITZ COLLEEN'
p757
sg15
F0.02711188872958823
sg16
F0.23789039433108064
sg17
I00
sg18
F0.09558290622671121
sg19
g44
sg21
F0.12290785764622973
sg22
F0.837179431909288
sg23
F0.8393356952427826
sg24
F0.21280397105980606
sg25
F0.3399075500770416
sg26
F0.04157082040083719
sg27
F1.5444422425417196e-05
sg28
F0.7042839164047339
sg29
F0.0037831021437578806
sg30
F0.027170786906942933
sg31
F0.0677053499828159
sg32
F0.07823137121233002
sg33
F0.14611521082913737
sg34
F0.00964862326439995
sg35
F0.025891227356073996
sg36
F0.039389280529675934
sg37
F0.9197093302584798
sg38
F1.6286748572672476
ssg1
(g5
S'}\x00\x00\x00\x00\x00\x00\x00'
p758
tp759
Rp760
(dp761
g12
F0.17161410018552875
sg13
S'SUNDE MARTIN'
p762
sg15
F0.1338454477789103
sg16
F0.23789039433108064
sg17
I00
sg18
F0.08022282761689771
sg19
S'marty.sunde@enron.com'
p763
sg21
F0.07007575757575758
sg22
F0.837179431909288
sg23
F0.8393356952427826
sg24
F0.46439572386301864
sg25
F0.3399075500770416
sg26
F0.0018110894399554194
sg27
F0.010726151374452242
sg28
F0.7042839164047339
sg29
F0.07944514501891552
sg30
F0.01365331140508153
sg31
F0.02134646962233169
sg32
F0.04524743106124868
sg33
F0.231376842059776
sg34
F0.014918079334860602
sg35
F0.34335823893037204
sg36
F0.0905056909602642
sg37
F0.4083333333333334
sg38
F11.786535303776681
ssg1
(g5
S'~\x00\x00\x00\x00\x00\x00\x00'
p764
tp765
Rp766
(dp767
g12
F0.03153988868274582
sg13
S'TAYLOR MITCHELL S'
p768
sg15
F0.03419333360232521
sg16
F0.23789039433108064
sg17
I00
sg18
F0.13342002529051686
sg19
S'mitchell.taylor@enron.com'
p769
sg21
F0.0
sg22
F0.837179431909288
sg23
F0.8393356952427826
sg24
F0.05399528900163073
sg25
F0.3399075500770416
sg26
F0.0011841738645862357
sg27
F0.04525916603744523
sg28
F0.7042839164047339
sg29
F0.06683480453972258
sg30
F0.07571624048924559
sg31
F0.0
sg32
F0.03607370213549463
sg33
F0.23833410906380287
sg34
F0.010549620945494744
sg35
F0.2804248405830601
sg36
F0.09235812627202039
sg37
F0.0
sg38
F0.0
ssg1
(g5
S'\x7f\x00\x00\x00\x00\x00\x00\x00'
p770
tp771
Rp772
(dp773
g12
F0.13363771966050086
sg13
S'THE TRAVEL AGENCY IN THE PARK'
p774
sg15
F0.1338454477789103
sg16
F0.23789039433108064
sg17
I00
sg18
F0.13342002529051686
sg19
g44
sg21
F0.12290785764622973
sg22
F0.837179431909288
sg23
F0.8393356952427826
sg24
F0.21280397105980606
sg25
F0.3399075500770416
sg26
F0.04157082040083719
sg27
F0.034952079335681334
sg28
F0.7042839164047339
sg29
F0.14272043809256926
sg30
F0.07023610810476011
sg31
F0.0677053499828159
sg32
F0.07823137121233002
sg33
F0.2553253454580079
sg34
F0.003495067987148855
sg35
F0.5589748163722422
sg36
F0.0905056909602642
sg37
F0.9197093302584798
sg38
F1.6286748572672476
ssg1
(g5
S'\x80\x00\x00\x00\x00\x00\x00\x00'
p775
tp776
Rp777
(dp778
g12
F0.013848396501457725
sg13
S'THORN TERENCE H'
p779
sg15
F0.0013436611674444842
sg16
F0.201198521531833
sg17
I00
sg18
F0.02576271947718485
sg19
S'terence.thorn@enron.com'
p780
sg21
F0.0
sg22
F0.837179431909288
sg23
F0.8393356952427826
sg24
F0.012864649393005979
sg25
F0.3399075500770416
sg26
F0.002020061298411814
sg27
F0.041181297538052886
sg28
F0.7042839164047339
sg29
F0.14272043809256926
sg30
F0.09757280168732356
sg31
F0.0
sg32
F0.022598595419150786
sg33
F0.19951367551299493
sg34
F0.008799808071956986
sg35
F0.7153416312220334
sg36
F0.12937846791048238
sg37
F0.0
sg38
F0.0
ssg1
(g5
S'\x81\x00\x00\x00\x00\x00\x00\x00'
p781
tp782
Rp783
(dp784
g12
F0.026702888947786906
sg13
S'TILNEY ELIZABETH A'
p785
sg15
F0.1338454477789103
sg16
F0.23789039433108064
sg17
I00
sg18
F0.04053751902747935
sg19
S'elizabeth.tilney@enron.com'
p786
sg21
F0.01893939393939394
sg22
F0.8361186486974794
sg23
F0.8393356952427826
sg24
F0.06830947635441204
sg25
F0.3399075500770416
sg26
F0.00048760100306492065
sg27
F0.014677317269074754
sg28
F0.7042839164047339
sg29
F0.029003783102143764
sg30
F0.02321137509046219
sg31
F0.0180623973727422
sg32
F0.03695589329356842
sg33
F0.22224092777964335
sg34
F0.003855217927794171
sg35
F0.1305060386127511
sg36
F0.016932761432395825
sg37
F0.7092638544251448
sg38
F37.043396669012424
ssg1
(g5
S'\x82\x00\x00\x00\x00\x00\x00\x00'
p787
tp788
Rp789
(dp790
g12
F0.0035780545984627613
sg13
S'UMANOFF ADAM S'
p791
sg15
F0.1338454477789103
sg16
F0.23171707893182864
sg17
I00
sg18
F0.13342002529051686
sg19
S'adam.umanoff@enron.com'
p792
sg21
F0.022727272727272728
sg22
F0.837179431909288
sg23
F0.8393356952427826
sg24
F0.007066497553904693
sg25
F0.3399075500770416
sg26
F0.00041794371691278906
sg27
F0.04525916603744523
sg28
F0.7042839164047339
sg29
F0.09063682219419925
sg30
F0.07023610810476011
sg31
F0.0
sg32
F0.07823137121233002
sg33
F0.2593778611625514
sg34
F0.010914608677926619
sg35
F0.34943931524440086
sg36
F0.0905056909602642
sg37
F6.351851851851853
sg38
F0.0
ssg1
(g5
S'\x83\x00\x00\x00\x00\x00\x00\x00'
p793
tp794
Rp795
(dp796
g12
F0.13363771966050086
sg13
S'URQUHART JOHN A'
p797
sg15
F0.1338454477789103
sg16
F0.9995319642193206
sg17
I00
sg18
F0.13342002529051686
sg19
g44
sg21
F0.12290785764622973
sg22
F0.9897723824928579
sg23
F0.8393356952427826
sg24
F0.21280397105980606
sg25
F0.3399075500770416
sg26
F0.04157082040083719
sg27
F0.04525916603744523
sg28
F0.17823200104153103
sg29
F0.14272043809256926
sg30
F0.07023610810476011
sg31
F0.0677053499828159
sg32
F0.07823137121233002
sg33
F0.2553253454580079
sg34
F0.002206535180764669
sg35
F0.5589748163722422
sg36
F0.0905056909602642
sg37
F0.9197093302584798
sg38
F1.6286748572672476
ssg1
(g5
S'\x84\x00\x00\x00\x00\x00\x00\x00'
p798
tp799
Rp800
(dp801
g12
F0.13363771966050086
sg13
S'WAKEHAM JOHN'
p802
sg15
F0.1338454477789103
sg16
F0.4532729698401242
sg17
I00
sg18
F0.13342002529051686
sg19
g44
sg21
F0.12290785764622973
sg22
F0.837179431909288
sg23
F0.8393356952427826
sg24
F0.21280397105980606
sg25
F0.3399075500770416
sg26
F0.04157082040083719
sg27
F0.04525916603744523
sg28
F0.8536648873844552
sg29
F0.14272043809256926
sg30
F0.07023610810476011
sg31
F0.0677053499828159
sg32
F0.07823137121233002
sg33
F0.2553253454580079
sg34
F0.0020560421967456533
sg35
F0.5589748163722422
sg36
F0.0905056909602642
sg37
F0.9197093302584798
sg38
F1.6286748572672476
ssg1
(g5
S'\x85\x00\x00\x00\x00\x00\x00\x00'
p803
tp804
Rp805
(dp806
g12
F0.040683805989928434
sg13
S'WALLS JR ROBERT H'
p807
sg15
F0.1338454477789103
sg16
F0.2221551516742121
sg17
I00
sg18
F0.09288975576468353
sg19
S'rob.walls@enron.com'
p808
sg21
F0.032196969696969696
sg22
F0.837179431909288
sg23
F0.8393356952427826
sg24
F0.03859394817901794
sg25
F0.3399075500770416
sg26
F0.009334076344385623
sg27
F0.0
sg28
F0.7042839164047339
sg29
F0.09836065573770493
sg30
F0.11960158740766337
sg31
F0.0
sg32
F0.1031956583757173
sg33
F0.32104798335585505
sg34
F0.017368078077131296
sg35
F0.3063736912767968
sg36
F0.12629354136677926
sg37
F0.7913952225841477
sg38
F0.0
ssg1
(g5
S'\x86\x00\x00\x00\x00\x00\x00\x00'
p809
tp810
Rp811
(dp812
g12
F0.13363771966050086
sg13
S'WALTERS GARETH W'
p813
sg15
F0.007113848527557673
sg16
F0.14713382761411106
sg17
I00
sg18
F0.13342002529051686
sg19
g44
sg21
F0.12290785764622973
sg22
F0.837179431909288
sg23
F0.8393356952427826
sg24
F0.21280397105980606
sg25
F0.3399075500770416
sg26
F0.04157082040083719
sg27
F0.04525916603744523
sg28
F0.7042839164047339
sg29
F0.14272043809256926
sg30
F0.02040555992019768
sg31
F0.0677053499828159
sg32
F0.07823137121233002
sg33
F0.2553253454580079
sg34
F0.0008426255227120564
sg35
F0.5589748163722422
sg36
F0.02971951578313618
sg37
F0.9197093302584798
sg38
F1.6286748572672476
ssg1
(g5
S'\x87\x00\x00\x00\x00\x00\x00\x00'
p814
tp815
Rp816
(dp817
g12
F0.022727272727272724
sg13
S'WASAFF GEORGE'
p818
sg15
F0.12826519400364136
sg16
F0.23789039433108064
sg17
I00
sg18
F0.02576271947718485
sg19
S'george.wasaff@enron.com'
p819
sg21
F0.04166666666666667
sg22
F0.833742489410036
sg23
F0.8393356952427826
sg24
F0.060699402065591594
sg25
F0.3399075500770416
sg26
F0.001253831150738367
sg27
F0.00013735883194605417
sg28
F0.7042839164047339
sg29
F0.032156368221942
sg30
F0.04131165690870328
sg31
F0.011494252873563218
sg32
F0.024149728356545903
sg33
F0.23363651340813357
sg34
F0.009986969345057141
sg35
F0.13763417264222255
sg36
F0.04829719084781051
sg37
F1.8333333333333337
sg38
F9.167305236270755
ssg1
(g5
S'\x88\x00\x00\x00\x00\x00\x00\x00'
p820
tp821
Rp822
(dp823
g12
F0.13363771966050086
sg13
S'WESTFAHL RICHARD K'
p824
sg15
F0.1338454477789103
sg16
F0.22624062288126326
sg17
I00
sg18
F0.03683219629759283
sg19
S'dick.westfahl@enron.com'
p825
sg21
F0.12290785764622973
sg22
F0.9971551736194657
sg23
F0.8393356952427826
sg24
F0.21280397105980606
sg25
F0.3399075500770416
sg26
F0.04157082040083719
sg27
F0.03871993924164217
sg28
F0.7042839164047339
sg29
F0.14272043809256926
sg30
F0.007255963984639359
sg31
F0.0677053499828159
sg32
F0.023929961327248925
sg33
F0.05695722199065342
sg34
F0.007357952994141685
sg35
F2.505747877169807
sg36
F0.0905056909602642
sg37
F0.9197093302584798
sg38
F1.6286748572672476
ssg1
(g5
S'\x89\x00\x00\x00\x00\x00\x00\x00'
p826
tp827
Rp828
(dp829
g12
F0.13363771966050086
sg13
S'WHALEY DAVID A'
p830
sg15
F0.1338454477789103
sg16
F0.23789039433108064
sg17
I00
sg18
F0.13342002529051686
sg19
g44
sg21
F0.12290785764622973
sg22
F0.837179431909288
sg23
F0.8393356952427826
sg24
F0.21280397105980606
sg25
F0.3399075500770416
sg26
F0.04157082040083719
sg27
F0.04525916603744523
sg28
F0.7042839164047339
sg29
F0.14272043809256926
sg30
F0.0014245757241864924
sg31
F0.0677053499828159
sg32
F0.07823137121233002
sg33
F0.2553253454580079
sg34
F0.024130416465827257
sg35
F0.5589748163722422
sg36
F0.002589361511473057
sg37
F0.9197093302584798
sg38
F1.6286748572672476
ssg1
(g5
S'\x8a\x00\x00\x00\x00\x00\x00\x00'
p831
tp832
Rp833
(dp834
g12
F0.3950437317784256
sg13
S'WHALLEY LAWRENCE G'
p835
sg15
F0.1338454477789103
sg16
F0.25234564661111475
sg17
I00
sg18
F0.14560525557349763
sg19
S'greg.whalley@enron.com'
p836
sg21
F0.3522727272727273
sg22
F0.837179431909288
sg23
F0.8393356952427826
sg24
F0.7099112157999637
sg25
F0.3399075500770416
sg26
F0.03789356366675954
sg27
F0.02905713635117991
sg28
F0.7042839164047339
sg29
F0.3694829760403531
sg30
F0.123271825836653
sg31
F0.03940886699507389
sg32
F0.1876348084360667
sg33
F0.45903467920319124
sg34
F0.0451664931837107
sg35
F0.804912989758671
sg36
F0.0953201007345062
sg37
F0.8917309627641733
sg38
F1.0399884091567662
ssg1
(g5
S'\x8b\x00\x00\x00\x00\x00\x00\x00'
p837
tp838
Rp839
(dp840
g12
F0.13363771966050086
sg13
S'WHITE JR THOMAS E'
p841
sg15
F0.1338454477789103
sg16
F0.3552041642061982
sg17
I00
sg18
F0.13342002529051686
sg19
S'thomas.white@enron.com'
p842
sg21
F0.12290785764622973
sg22
F0.837179431909288
sg23
F0.8393356952427826
sg24
F0.21280397105980606
sg25
F0.3399075500770416
sg26
F0.04157082040083719
sg27
F0.10477698881447359
sg28
F0.7042839164047339
sg29
F0.04791929382093317
sg30
F0.3079651753173511
sg31
F0.0677053499828159
sg32
F0.9379044422812484
sg33
F0.2854442054734462
sg34
F0.018677265647250915
sg35
F0.16787621854664317
sg36
F0.03748687227349319
sg37
F0.9197093302584798
sg38
F1.6286748572672476
ssg1
(g5
S'\x8c\x00\x00\x00\x00\x00\x00\x00'
p843
tp844
Rp845
(dp846
g12
F0.13363771966050086
sg13
S'WINOKUR JR. HERBERT S'
p847
sg15
F0.1338454477789103
sg16
F0.005533320210834809
sg17
I00
sg18
F0.13342002529051686
sg19
g44
sg21
F0.12290785764622973
sg22
F0.993102145165208
sg23
F0.8393356952427826
sg24
F0.21280397105980606
sg25
F0.3399075500770416
sg26
F0.04157082040083719
sg27
F0.04525916603744523
sg28
F0.8469786300146931
sg29
F0.14272043809256926
sg30
F0.07023610810476011
sg31
F0.0677053499828159
sg32
F0.07823137121233002
sg33
F0.2553253454580079
sg34
F0.0008192766593589617
sg35
F0.5589748163722422
sg36
F0.0905056909602642
sg37
F0.9197093302584798
sg38
F1.6286748572672476
ssg1
(g5
S'\x8d\x00\x00\x00\x00\x00\x00\x00'
p848
tp849
Rp850
(dp851
g12
F0.13363771966050086
sg13
S'WODRASKA JOHN'
p852
sg15
F0.1338454477789103
sg16
F0.23789039433108064
sg17
I00
sg18
F0.13342002529051686
sg19
S'john.wodraska@enron.com'
p853
sg21
F0.12290785764622973
sg22
F0.837179431909288
sg23
F0.8393356952427826
sg24
F0.21280397105980606
sg25
F0.3399075500770416
sg26
F0.04157082040083719
sg27
F0.018299806548956358
sg28
F0.7042839164047339
sg29
F0.14272043809256926
sg30
F0.07023610810476011
sg31
F0.0677053499828159
sg32
F0.07823137121233002
sg33
F0.2553253454580079
sg34
F0.001829235702768197
sg35
F0.5589748163722422
sg36
F0.0905056909602642
sg37
F0.9197093302584798
sg38
F1.6286748572672476
ssg1
(g5
S'\x8e\x00\x00\x00\x00\x00\x00\x00'
p854
tp855
Rp856
(dp857
g12
F0.13363771966050086
sg13
S'WROBEL BRUCE'
p858
sg15
F0.1338454477789103
sg16
F0.23789039433108064
sg17
I00
sg18
F0.13342002529051686
sg19
g44
sg21
F0.12290785764622973
sg22
F0.837179431909288
sg23
F0.8393356952427826
sg24
F0.21280397105980606
sg25
F0.3399075500770416
sg26
F0.04157082040083719
sg27
F0.04525916603744523
sg28
F0.7042839164047339
sg29
F0.14272043809256926
sg30
F0.002247944633880779
sg31
F0.0677053499828159
sg32
F0.07823137121233002
sg33
F0.2553253454580079
sg34
F0.024130416465827257
sg35
F0.5589748163722422
sg36
F0.0037662301770710915
sg37
F0.9197093302584798
sg38
F1.6286748572672476
ssg1
(g5
S'\x8f\x00\x00\x00\x00\x00\x00\x00'
p859
tp860
Rp861
(dp862
g12
F0.13363771966050086
sg13
S'YEAGER F SCOTT'
p863
sg15
F0.1338454477789103
sg16
F0.2353257660258513
sg17
I01
sg18
F0.13342002529051686
sg19
S'scott.yeager@enron.com'
p864
sg21
F0.12290785764622973
sg22
F0.837179431909288
sg23
F0.8393356952427826
sg24
F0.21280397105980606
sg25
F0.3399075500770416
sg26
F0.04157082040083719
sg27
F0.014281071306222644
sg28
F0.7042839164047339
sg29
F0.14272043809256926
sg30
F0.24155767738738682
sg31
F0.0677053499828159
sg32
F0.24059268798363856
sg33
F0.14217564038275773
sg34
F0.0034777253243770774
sg35
F1.0038318639419865
sg36
F0.2416741973117643
sg37
F0.9197093302584798
sg38
F1.6286748572672476
ssg1
(g5
S'\x90\x00\x00\x00\x00\x00\x00\x00'
p865
tp866
Rp867
(dp868
g12
F0.13363771966050086
sg13
S'YEAP SOON'
p869
sg15
F0.1338454477789103
sg16
F0.24035605712661023
sg17
I00
sg18
F0.13342002529051686
sg19
g44
sg21
F0.12290785764622973
sg22
F0.837179431909288
sg23
F0.8393356952427826
sg24
F0.21280397105980606
sg25
F0.3399075500770416
sg26
F0.04157082040083719
sg27
F0.04525916603744523
sg28
F0.7042839164047339
sg29
F0.14272043809256926
sg30
F0.0033405811747370894
sg31
F0.0677053499828159
sg32
F0.07823137121233002
sg33
F0.2553253454580079
sg34
F0.0005306024368855263
sg35
F0.5589748163722422
sg36
F0.005327972055688615
sg37
F0.9197093302584798
sg38
F1.6286748572672476
ss.